ARM GAS  C:\Users\86390\AppData\Local\Temp\ccXt6oDH.s 			page 1


   1              		.cpu cortex-m3
   2              		.arch armv7-m
   3              		.fpu softvfp
   4              		.eabi_attribute 20, 1
   5              		.eabi_attribute 21, 1
   6              		.eabi_attribute 23, 3
   7              		.eabi_attribute 24, 1
   8              		.eabi_attribute 25, 1
   9              		.eabi_attribute 26, 1
  10              		.eabi_attribute 30, 1
  11              		.eabi_attribute 34, 1
  12              		.eabi_attribute 18, 4
  13              		.file	"adc.c"
  14              		.text
  15              	.Ltext0:
  16              		.cfi_sections	.debug_frame
  17              		.section	.text.MX_ADC1_Init,"ax",%progbits
  18              		.align	1
  19              		.global	MX_ADC1_Init
  20              		.syntax unified
  21              		.thumb
  22              		.thumb_func
  24              	MX_ADC1_Init:
  25              	.LFB68:
  26              		.file 1 "Core/Src/adc.c"
   1:Core/Src/adc.c **** /* USER CODE BEGIN Header */
   2:Core/Src/adc.c **** /**
   3:Core/Src/adc.c ****   ******************************************************************************
   4:Core/Src/adc.c ****   * @file    adc.c
   5:Core/Src/adc.c ****   * @brief   This file provides code for the configuration
   6:Core/Src/adc.c ****   *          of the ADC instances.
   7:Core/Src/adc.c ****   ******************************************************************************
   8:Core/Src/adc.c ****   * @attention
   9:Core/Src/adc.c ****   *
  10:Core/Src/adc.c ****   * Copyright (c) 2024 STMicroelectronics.
  11:Core/Src/adc.c ****   * All rights reserved.
  12:Core/Src/adc.c ****   *
  13:Core/Src/adc.c ****   * This software is licensed under terms that can be found in the LICENSE file
  14:Core/Src/adc.c ****   * in the root directory of this software component.
  15:Core/Src/adc.c ****   * If no LICENSE file comes with this software, it is provided AS-IS.
  16:Core/Src/adc.c ****   *
  17:Core/Src/adc.c ****   ******************************************************************************
  18:Core/Src/adc.c ****   */
  19:Core/Src/adc.c **** /* USER CODE END Header */
  20:Core/Src/adc.c **** /* Includes ------------------------------------------------------------------*/
  21:Core/Src/adc.c **** #include "adc.h"
  22:Core/Src/adc.c **** 
  23:Core/Src/adc.c **** /* USER CODE BEGIN 0 */
  24:Core/Src/adc.c **** 
  25:Core/Src/adc.c **** /* USER CODE END 0 */
  26:Core/Src/adc.c **** 
  27:Core/Src/adc.c **** ADC_HandleTypeDef hadc1;
  28:Core/Src/adc.c **** DMA_HandleTypeDef hdma_adc1;
  29:Core/Src/adc.c **** 
  30:Core/Src/adc.c **** /* ADC1 init function */
  31:Core/Src/adc.c **** void MX_ADC1_Init(void)
  32:Core/Src/adc.c **** {
ARM GAS  C:\Users\86390\AppData\Local\Temp\ccXt6oDH.s 			page 2


  27              		.loc 1 32 1 view -0
  28              		.cfi_startproc
  29              		@ args = 0, pretend = 0, frame = 16
  30              		@ frame_needed = 0, uses_anonymous_args = 0
  31 0000 00B5     		push	{lr}
  32              	.LCFI0:
  33              		.cfi_def_cfa_offset 4
  34              		.cfi_offset 14, -4
  35 0002 85B0     		sub	sp, sp, #20
  36              	.LCFI1:
  37              		.cfi_def_cfa_offset 24
  33:Core/Src/adc.c **** 
  34:Core/Src/adc.c ****   /* USER CODE BEGIN ADC1_Init 0 */
  35:Core/Src/adc.c **** 
  36:Core/Src/adc.c ****   /* USER CODE END ADC1_Init 0 */
  37:Core/Src/adc.c **** 
  38:Core/Src/adc.c ****   ADC_ChannelConfTypeDef sConfig = {0};
  38              		.loc 1 38 3 view .LVU1
  39              		.loc 1 38 26 is_stmt 0 view .LVU2
  40 0004 0023     		movs	r3, #0
  41 0006 0193     		str	r3, [sp, #4]
  42 0008 0293     		str	r3, [sp, #8]
  43 000a 0393     		str	r3, [sp, #12]
  39:Core/Src/adc.c **** 
  40:Core/Src/adc.c ****   /* USER CODE BEGIN ADC1_Init 1 */
  41:Core/Src/adc.c **** 
  42:Core/Src/adc.c ****   /* USER CODE END ADC1_Init 1 */
  43:Core/Src/adc.c **** 
  44:Core/Src/adc.c ****   /** Common config
  45:Core/Src/adc.c ****   */
  46:Core/Src/adc.c ****   hadc1.Instance = ADC1;
  44              		.loc 1 46 3 is_stmt 1 view .LVU3
  45              		.loc 1 46 18 is_stmt 0 view .LVU4
  46 000c 1848     		ldr	r0, .L9
  47 000e 194A     		ldr	r2, .L9+4
  48 0010 0260     		str	r2, [r0]
  47:Core/Src/adc.c ****   hadc1.Init.ScanConvMode = ADC_SCAN_ENABLE;
  49              		.loc 1 47 3 is_stmt 1 view .LVU5
  50              		.loc 1 47 27 is_stmt 0 view .LVU6
  51 0012 4FF48072 		mov	r2, #256
  52 0016 8260     		str	r2, [r0, #8]
  48:Core/Src/adc.c ****   hadc1.Init.ContinuousConvMode = DISABLE;
  53              		.loc 1 48 3 is_stmt 1 view .LVU7
  54              		.loc 1 48 33 is_stmt 0 view .LVU8
  55 0018 0373     		strb	r3, [r0, #12]
  49:Core/Src/adc.c ****   hadc1.Init.DiscontinuousConvMode = DISABLE;
  56              		.loc 1 49 3 is_stmt 1 view .LVU9
  57              		.loc 1 49 36 is_stmt 0 view .LVU10
  58 001a 0375     		strb	r3, [r0, #20]
  50:Core/Src/adc.c ****   hadc1.Init.ExternalTrigConv = ADC_SOFTWARE_START;
  59              		.loc 1 50 3 is_stmt 1 view .LVU11
  60              		.loc 1 50 31 is_stmt 0 view .LVU12
  61 001c 4FF46022 		mov	r2, #917504
  62 0020 C261     		str	r2, [r0, #28]
  51:Core/Src/adc.c ****   hadc1.Init.DataAlign = ADC_DATAALIGN_RIGHT;
  63              		.loc 1 51 3 is_stmt 1 view .LVU13
  64              		.loc 1 51 24 is_stmt 0 view .LVU14
ARM GAS  C:\Users\86390\AppData\Local\Temp\ccXt6oDH.s 			page 3


  65 0022 4360     		str	r3, [r0, #4]
  52:Core/Src/adc.c ****   hadc1.Init.NbrOfConversion = 2;
  66              		.loc 1 52 3 is_stmt 1 view .LVU15
  67              		.loc 1 52 30 is_stmt 0 view .LVU16
  68 0024 0223     		movs	r3, #2
  69 0026 0361     		str	r3, [r0, #16]
  53:Core/Src/adc.c ****   if (HAL_ADC_Init(&hadc1) != HAL_OK)
  70              		.loc 1 53 3 is_stmt 1 view .LVU17
  71              		.loc 1 53 7 is_stmt 0 view .LVU18
  72 0028 FFF7FEFF 		bl	HAL_ADC_Init
  73              	.LVL0:
  74              		.loc 1 53 6 view .LVU19
  75 002c B0B9     		cbnz	r0, .L6
  76              	.L2:
  54:Core/Src/adc.c ****   {
  55:Core/Src/adc.c ****     Error_Handler();
  56:Core/Src/adc.c ****   }
  57:Core/Src/adc.c **** 
  58:Core/Src/adc.c ****   /** Configure Regular Channel
  59:Core/Src/adc.c ****   */
  60:Core/Src/adc.c ****   sConfig.Channel = ADC_CHANNEL_8;
  77              		.loc 1 60 3 is_stmt 1 view .LVU20
  78              		.loc 1 60 19 is_stmt 0 view .LVU21
  79 002e 0823     		movs	r3, #8
  80 0030 0193     		str	r3, [sp, #4]
  61:Core/Src/adc.c ****   sConfig.Rank = ADC_REGULAR_RANK_1;
  81              		.loc 1 61 3 is_stmt 1 view .LVU22
  82              		.loc 1 61 16 is_stmt 0 view .LVU23
  83 0032 0123     		movs	r3, #1
  84 0034 0293     		str	r3, [sp, #8]
  62:Core/Src/adc.c ****   sConfig.SamplingTime = ADC_SAMPLETIME_13CYCLES_5;
  85              		.loc 1 62 3 is_stmt 1 view .LVU24
  86              		.loc 1 62 24 is_stmt 0 view .LVU25
  87 0036 0223     		movs	r3, #2
  88 0038 0393     		str	r3, [sp, #12]
  63:Core/Src/adc.c ****   if (HAL_ADC_ConfigChannel(&hadc1, &sConfig) != HAL_OK)
  89              		.loc 1 63 3 is_stmt 1 view .LVU26
  90              		.loc 1 63 7 is_stmt 0 view .LVU27
  91 003a 01A9     		add	r1, sp, #4
  92 003c 0C48     		ldr	r0, .L9
  93 003e FFF7FEFF 		bl	HAL_ADC_ConfigChannel
  94              	.LVL1:
  95              		.loc 1 63 6 view .LVU28
  96 0042 70B9     		cbnz	r0, .L7
  97              	.L3:
  64:Core/Src/adc.c ****   {
  65:Core/Src/adc.c ****     Error_Handler();
  66:Core/Src/adc.c ****   }
  67:Core/Src/adc.c **** 
  68:Core/Src/adc.c ****   /** Configure Regular Channel
  69:Core/Src/adc.c ****   */
  70:Core/Src/adc.c ****   sConfig.Channel = ADC_CHANNEL_9;
  98              		.loc 1 70 3 is_stmt 1 view .LVU29
  99              		.loc 1 70 19 is_stmt 0 view .LVU30
 100 0044 0923     		movs	r3, #9
 101 0046 0193     		str	r3, [sp, #4]
  71:Core/Src/adc.c ****   sConfig.Rank = ADC_REGULAR_RANK_2;
ARM GAS  C:\Users\86390\AppData\Local\Temp\ccXt6oDH.s 			page 4


 102              		.loc 1 71 3 is_stmt 1 view .LVU31
 103              		.loc 1 71 16 is_stmt 0 view .LVU32
 104 0048 0223     		movs	r3, #2
 105 004a 0293     		str	r3, [sp, #8]
  72:Core/Src/adc.c ****   if (HAL_ADC_ConfigChannel(&hadc1, &sConfig) != HAL_OK)
 106              		.loc 1 72 3 is_stmt 1 view .LVU33
 107              		.loc 1 72 7 is_stmt 0 view .LVU34
 108 004c 01A9     		add	r1, sp, #4
 109 004e 0848     		ldr	r0, .L9
 110 0050 FFF7FEFF 		bl	HAL_ADC_ConfigChannel
 111              	.LVL2:
 112              		.loc 1 72 6 view .LVU35
 113 0054 40B9     		cbnz	r0, .L8
 114              	.L1:
  73:Core/Src/adc.c ****   {
  74:Core/Src/adc.c ****     Error_Handler();
  75:Core/Src/adc.c ****   }
  76:Core/Src/adc.c ****   /* USER CODE BEGIN ADC1_Init 2 */
  77:Core/Src/adc.c **** 
  78:Core/Src/adc.c ****   /* USER CODE END ADC1_Init 2 */
  79:Core/Src/adc.c **** 
  80:Core/Src/adc.c **** }
 115              		.loc 1 80 1 view .LVU36
 116 0056 05B0     		add	sp, sp, #20
 117              	.LCFI2:
 118              		.cfi_remember_state
 119              		.cfi_def_cfa_offset 4
 120              		@ sp needed
 121 0058 5DF804FB 		ldr	pc, [sp], #4
 122              	.L6:
 123              	.LCFI3:
 124              		.cfi_restore_state
  55:Core/Src/adc.c ****   }
 125              		.loc 1 55 5 is_stmt 1 view .LVU37
 126 005c FFF7FEFF 		bl	Error_Handler
 127              	.LVL3:
 128 0060 E5E7     		b	.L2
 129              	.L7:
  65:Core/Src/adc.c ****   }
 130              		.loc 1 65 5 view .LVU38
 131 0062 FFF7FEFF 		bl	Error_Handler
 132              	.LVL4:
 133 0066 EDE7     		b	.L3
 134              	.L8:
  74:Core/Src/adc.c ****   }
 135              		.loc 1 74 5 view .LVU39
 136 0068 FFF7FEFF 		bl	Error_Handler
 137              	.LVL5:
 138              		.loc 1 80 1 is_stmt 0 view .LVU40
 139 006c F3E7     		b	.L1
 140              	.L10:
 141 006e 00BF     		.align	2
 142              	.L9:
 143 0070 00000000 		.word	.LANCHOR0
 144 0074 00240140 		.word	1073816576
 145              		.cfi_endproc
 146              	.LFE68:
ARM GAS  C:\Users\86390\AppData\Local\Temp\ccXt6oDH.s 			page 5


 148              		.section	.text.HAL_ADC_MspInit,"ax",%progbits
 149              		.align	1
 150              		.global	HAL_ADC_MspInit
 151              		.syntax unified
 152              		.thumb
 153              		.thumb_func
 155              	HAL_ADC_MspInit:
 156              	.LVL6:
 157              	.LFB69:
  81:Core/Src/adc.c **** 
  82:Core/Src/adc.c **** void HAL_ADC_MspInit(ADC_HandleTypeDef* adcHandle)
  83:Core/Src/adc.c **** {
 158              		.loc 1 83 1 is_stmt 1 view -0
 159              		.cfi_startproc
 160              		@ args = 0, pretend = 0, frame = 24
 161              		@ frame_needed = 0, uses_anonymous_args = 0
 162              		.loc 1 83 1 is_stmt 0 view .LVU42
 163 0000 10B5     		push	{r4, lr}
 164              	.LCFI4:
 165              		.cfi_def_cfa_offset 8
 166              		.cfi_offset 4, -8
 167              		.cfi_offset 14, -4
 168 0002 86B0     		sub	sp, sp, #24
 169              	.LCFI5:
 170              		.cfi_def_cfa_offset 32
  84:Core/Src/adc.c **** 
  85:Core/Src/adc.c ****   GPIO_InitTypeDef GPIO_InitStruct = {0};
 171              		.loc 1 85 3 is_stmt 1 view .LVU43
 172              		.loc 1 85 20 is_stmt 0 view .LVU44
 173 0004 0023     		movs	r3, #0
 174 0006 0293     		str	r3, [sp, #8]
 175 0008 0393     		str	r3, [sp, #12]
 176 000a 0493     		str	r3, [sp, #16]
 177 000c 0593     		str	r3, [sp, #20]
  86:Core/Src/adc.c ****   if(adcHandle->Instance==ADC1)
 178              		.loc 1 86 3 is_stmt 1 view .LVU45
 179              		.loc 1 86 15 is_stmt 0 view .LVU46
 180 000e 0268     		ldr	r2, [r0]
 181              		.loc 1 86 5 view .LVU47
 182 0010 1D4B     		ldr	r3, .L17
 183 0012 9A42     		cmp	r2, r3
 184 0014 01D0     		beq	.L15
 185              	.LVL7:
 186              	.L11:
  87:Core/Src/adc.c ****   {
  88:Core/Src/adc.c ****   /* USER CODE BEGIN ADC1_MspInit 0 */
  89:Core/Src/adc.c **** 
  90:Core/Src/adc.c ****   /* USER CODE END ADC1_MspInit 0 */
  91:Core/Src/adc.c ****     /* ADC1 clock enable */
  92:Core/Src/adc.c ****     __HAL_RCC_ADC1_CLK_ENABLE();
  93:Core/Src/adc.c **** 
  94:Core/Src/adc.c ****     __HAL_RCC_GPIOB_CLK_ENABLE();
  95:Core/Src/adc.c ****     /**ADC1 GPIO Configuration
  96:Core/Src/adc.c ****     PB0     ------> ADC1_IN8
  97:Core/Src/adc.c ****     PB1     ------> ADC1_IN9
  98:Core/Src/adc.c ****     */
  99:Core/Src/adc.c ****     GPIO_InitStruct.Pin = GPIO_PIN_0|GPIO_PIN_1;
ARM GAS  C:\Users\86390\AppData\Local\Temp\ccXt6oDH.s 			page 6


 100:Core/Src/adc.c ****     GPIO_InitStruct.Mode = GPIO_MODE_ANALOG;
 101:Core/Src/adc.c ****     HAL_GPIO_Init(GPIOB, &GPIO_InitStruct);
 102:Core/Src/adc.c **** 
 103:Core/Src/adc.c ****     /* ADC1 DMA Init */
 104:Core/Src/adc.c ****     /* ADC1 Init */
 105:Core/Src/adc.c ****     hdma_adc1.Instance = DMA1_Channel1;
 106:Core/Src/adc.c ****     hdma_adc1.Init.Direction = DMA_PERIPH_TO_MEMORY;
 107:Core/Src/adc.c ****     hdma_adc1.Init.PeriphInc = DMA_PINC_DISABLE;
 108:Core/Src/adc.c ****     hdma_adc1.Init.MemInc = DMA_MINC_ENABLE;
 109:Core/Src/adc.c ****     hdma_adc1.Init.PeriphDataAlignment = DMA_PDATAALIGN_HALFWORD;
 110:Core/Src/adc.c ****     hdma_adc1.Init.MemDataAlignment = DMA_MDATAALIGN_HALFWORD;
 111:Core/Src/adc.c ****     hdma_adc1.Init.Mode = DMA_CIRCULAR;
 112:Core/Src/adc.c ****     hdma_adc1.Init.Priority = DMA_PRIORITY_LOW;
 113:Core/Src/adc.c ****     if (HAL_DMA_Init(&hdma_adc1) != HAL_OK)
 114:Core/Src/adc.c ****     {
 115:Core/Src/adc.c ****       Error_Handler();
 116:Core/Src/adc.c ****     }
 117:Core/Src/adc.c **** 
 118:Core/Src/adc.c ****     __HAL_LINKDMA(adcHandle,DMA_Handle,hdma_adc1);
 119:Core/Src/adc.c **** 
 120:Core/Src/adc.c ****   /* USER CODE BEGIN ADC1_MspInit 1 */
 121:Core/Src/adc.c **** 
 122:Core/Src/adc.c ****   /* USER CODE END ADC1_MspInit 1 */
 123:Core/Src/adc.c ****   }
 124:Core/Src/adc.c **** }
 187              		.loc 1 124 1 view .LVU48
 188 0016 06B0     		add	sp, sp, #24
 189              	.LCFI6:
 190              		.cfi_remember_state
 191              		.cfi_def_cfa_offset 8
 192              		@ sp needed
 193 0018 10BD     		pop	{r4, pc}
 194              	.LVL8:
 195              	.L15:
 196              	.LCFI7:
 197              		.cfi_restore_state
 198              		.loc 1 124 1 view .LVU49
 199 001a 0446     		mov	r4, r0
  92:Core/Src/adc.c **** 
 200              		.loc 1 92 5 is_stmt 1 view .LVU50
 201              	.LBB2:
  92:Core/Src/adc.c **** 
 202              		.loc 1 92 5 view .LVU51
  92:Core/Src/adc.c **** 
 203              		.loc 1 92 5 view .LVU52
 204 001c 03F56C43 		add	r3, r3, #60416
 205 0020 9A69     		ldr	r2, [r3, #24]
 206 0022 42F40072 		orr	r2, r2, #512
 207 0026 9A61     		str	r2, [r3, #24]
  92:Core/Src/adc.c **** 
 208              		.loc 1 92 5 view .LVU53
 209 0028 9A69     		ldr	r2, [r3, #24]
 210 002a 02F40072 		and	r2, r2, #512
 211 002e 0092     		str	r2, [sp]
  92:Core/Src/adc.c **** 
 212              		.loc 1 92 5 view .LVU54
 213 0030 009A     		ldr	r2, [sp]
ARM GAS  C:\Users\86390\AppData\Local\Temp\ccXt6oDH.s 			page 7


 214              	.LBE2:
  92:Core/Src/adc.c **** 
 215              		.loc 1 92 5 view .LVU55
  94:Core/Src/adc.c ****     /**ADC1 GPIO Configuration
 216              		.loc 1 94 5 view .LVU56
 217              	.LBB3:
  94:Core/Src/adc.c ****     /**ADC1 GPIO Configuration
 218              		.loc 1 94 5 view .LVU57
  94:Core/Src/adc.c ****     /**ADC1 GPIO Configuration
 219              		.loc 1 94 5 view .LVU58
 220 0032 9A69     		ldr	r2, [r3, #24]
 221 0034 42F00802 		orr	r2, r2, #8
 222 0038 9A61     		str	r2, [r3, #24]
  94:Core/Src/adc.c ****     /**ADC1 GPIO Configuration
 223              		.loc 1 94 5 view .LVU59
 224 003a 9B69     		ldr	r3, [r3, #24]
 225 003c 03F00803 		and	r3, r3, #8
 226 0040 0193     		str	r3, [sp, #4]
  94:Core/Src/adc.c ****     /**ADC1 GPIO Configuration
 227              		.loc 1 94 5 view .LVU60
 228 0042 019B     		ldr	r3, [sp, #4]
 229              	.LBE3:
  94:Core/Src/adc.c ****     /**ADC1 GPIO Configuration
 230              		.loc 1 94 5 view .LVU61
  99:Core/Src/adc.c ****     GPIO_InitStruct.Mode = GPIO_MODE_ANALOG;
 231              		.loc 1 99 5 view .LVU62
  99:Core/Src/adc.c ****     GPIO_InitStruct.Mode = GPIO_MODE_ANALOG;
 232              		.loc 1 99 25 is_stmt 0 view .LVU63
 233 0044 0323     		movs	r3, #3
 234 0046 0293     		str	r3, [sp, #8]
 100:Core/Src/adc.c ****     HAL_GPIO_Init(GPIOB, &GPIO_InitStruct);
 235              		.loc 1 100 5 is_stmt 1 view .LVU64
 100:Core/Src/adc.c ****     HAL_GPIO_Init(GPIOB, &GPIO_InitStruct);
 236              		.loc 1 100 26 is_stmt 0 view .LVU65
 237 0048 0393     		str	r3, [sp, #12]
 101:Core/Src/adc.c **** 
 238              		.loc 1 101 5 is_stmt 1 view .LVU66
 239 004a 02A9     		add	r1, sp, #8
 240 004c 0F48     		ldr	r0, .L17+4
 241              	.LVL9:
 101:Core/Src/adc.c **** 
 242              		.loc 1 101 5 is_stmt 0 view .LVU67
 243 004e FFF7FEFF 		bl	HAL_GPIO_Init
 244              	.LVL10:
 105:Core/Src/adc.c ****     hdma_adc1.Init.Direction = DMA_PERIPH_TO_MEMORY;
 245              		.loc 1 105 5 is_stmt 1 view .LVU68
 105:Core/Src/adc.c ****     hdma_adc1.Init.Direction = DMA_PERIPH_TO_MEMORY;
 246              		.loc 1 105 24 is_stmt 0 view .LVU69
 247 0052 0F48     		ldr	r0, .L17+8
 248 0054 0F4B     		ldr	r3, .L17+12
 249 0056 0360     		str	r3, [r0]
 106:Core/Src/adc.c ****     hdma_adc1.Init.PeriphInc = DMA_PINC_DISABLE;
 250              		.loc 1 106 5 is_stmt 1 view .LVU70
 106:Core/Src/adc.c ****     hdma_adc1.Init.PeriphInc = DMA_PINC_DISABLE;
 251              		.loc 1 106 30 is_stmt 0 view .LVU71
 252 0058 0023     		movs	r3, #0
 253 005a 4360     		str	r3, [r0, #4]
ARM GAS  C:\Users\86390\AppData\Local\Temp\ccXt6oDH.s 			page 8


 107:Core/Src/adc.c ****     hdma_adc1.Init.MemInc = DMA_MINC_ENABLE;
 254              		.loc 1 107 5 is_stmt 1 view .LVU72
 107:Core/Src/adc.c ****     hdma_adc1.Init.MemInc = DMA_MINC_ENABLE;
 255              		.loc 1 107 30 is_stmt 0 view .LVU73
 256 005c 8360     		str	r3, [r0, #8]
 108:Core/Src/adc.c ****     hdma_adc1.Init.PeriphDataAlignment = DMA_PDATAALIGN_HALFWORD;
 257              		.loc 1 108 5 is_stmt 1 view .LVU74
 108:Core/Src/adc.c ****     hdma_adc1.Init.PeriphDataAlignment = DMA_PDATAALIGN_HALFWORD;
 258              		.loc 1 108 27 is_stmt 0 view .LVU75
 259 005e 8022     		movs	r2, #128
 260 0060 C260     		str	r2, [r0, #12]
 109:Core/Src/adc.c ****     hdma_adc1.Init.MemDataAlignment = DMA_MDATAALIGN_HALFWORD;
 261              		.loc 1 109 5 is_stmt 1 view .LVU76
 109:Core/Src/adc.c ****     hdma_adc1.Init.MemDataAlignment = DMA_MDATAALIGN_HALFWORD;
 262              		.loc 1 109 40 is_stmt 0 view .LVU77
 263 0062 4FF48072 		mov	r2, #256
 264 0066 0261     		str	r2, [r0, #16]
 110:Core/Src/adc.c ****     hdma_adc1.Init.Mode = DMA_CIRCULAR;
 265              		.loc 1 110 5 is_stmt 1 view .LVU78
 110:Core/Src/adc.c ****     hdma_adc1.Init.Mode = DMA_CIRCULAR;
 266              		.loc 1 110 37 is_stmt 0 view .LVU79
 267 0068 4FF48062 		mov	r2, #1024
 268 006c 4261     		str	r2, [r0, #20]
 111:Core/Src/adc.c ****     hdma_adc1.Init.Priority = DMA_PRIORITY_LOW;
 269              		.loc 1 111 5 is_stmt 1 view .LVU80
 111:Core/Src/adc.c ****     hdma_adc1.Init.Priority = DMA_PRIORITY_LOW;
 270              		.loc 1 111 25 is_stmt 0 view .LVU81
 271 006e 2022     		movs	r2, #32
 272 0070 8261     		str	r2, [r0, #24]
 112:Core/Src/adc.c ****     if (HAL_DMA_Init(&hdma_adc1) != HAL_OK)
 273              		.loc 1 112 5 is_stmt 1 view .LVU82
 112:Core/Src/adc.c ****     if (HAL_DMA_Init(&hdma_adc1) != HAL_OK)
 274              		.loc 1 112 29 is_stmt 0 view .LVU83
 275 0072 C361     		str	r3, [r0, #28]
 113:Core/Src/adc.c ****     {
 276              		.loc 1 113 5 is_stmt 1 view .LVU84
 113:Core/Src/adc.c ****     {
 277              		.loc 1 113 9 is_stmt 0 view .LVU85
 278 0074 FFF7FEFF 		bl	HAL_DMA_Init
 279              	.LVL11:
 113:Core/Src/adc.c ****     {
 280              		.loc 1 113 8 view .LVU86
 281 0078 18B9     		cbnz	r0, .L16
 282              	.L13:
 118:Core/Src/adc.c **** 
 283              		.loc 1 118 5 is_stmt 1 view .LVU87
 118:Core/Src/adc.c **** 
 284              		.loc 1 118 5 view .LVU88
 285 007a 054B     		ldr	r3, .L17+8
 286 007c 2362     		str	r3, [r4, #32]
 118:Core/Src/adc.c **** 
 287              		.loc 1 118 5 view .LVU89
 288 007e 5C62     		str	r4, [r3, #36]
 118:Core/Src/adc.c **** 
 289              		.loc 1 118 5 view .LVU90
 290              		.loc 1 124 1 is_stmt 0 view .LVU91
 291 0080 C9E7     		b	.L11
ARM GAS  C:\Users\86390\AppData\Local\Temp\ccXt6oDH.s 			page 9


 292              	.L16:
 115:Core/Src/adc.c ****     }
 293              		.loc 1 115 7 is_stmt 1 view .LVU92
 294 0082 FFF7FEFF 		bl	Error_Handler
 295              	.LVL12:
 296 0086 F8E7     		b	.L13
 297              	.L18:
 298              		.align	2
 299              	.L17:
 300 0088 00240140 		.word	1073816576
 301 008c 000C0140 		.word	1073810432
 302 0090 00000000 		.word	.LANCHOR1
 303 0094 08000240 		.word	1073872904
 304              		.cfi_endproc
 305              	.LFE69:
 307              		.section	.text.HAL_ADC_MspDeInit,"ax",%progbits
 308              		.align	1
 309              		.global	HAL_ADC_MspDeInit
 310              		.syntax unified
 311              		.thumb
 312              		.thumb_func
 314              	HAL_ADC_MspDeInit:
 315              	.LVL13:
 316              	.LFB70:
 125:Core/Src/adc.c **** 
 126:Core/Src/adc.c **** void HAL_ADC_MspDeInit(ADC_HandleTypeDef* adcHandle)
 127:Core/Src/adc.c **** {
 317              		.loc 1 127 1 view -0
 318              		.cfi_startproc
 319              		@ args = 0, pretend = 0, frame = 0
 320              		@ frame_needed = 0, uses_anonymous_args = 0
 128:Core/Src/adc.c **** 
 129:Core/Src/adc.c ****   if(adcHandle->Instance==ADC1)
 321              		.loc 1 129 3 view .LVU94
 322              		.loc 1 129 15 is_stmt 0 view .LVU95
 323 0000 0268     		ldr	r2, [r0]
 324              		.loc 1 129 5 view .LVU96
 325 0002 094B     		ldr	r3, .L26
 326 0004 9A42     		cmp	r2, r3
 327 0006 00D0     		beq	.L25
 328 0008 7047     		bx	lr
 329              	.L25:
 127:Core/Src/adc.c **** 
 330              		.loc 1 127 1 view .LVU97
 331 000a 10B5     		push	{r4, lr}
 332              	.LCFI8:
 333              		.cfi_def_cfa_offset 8
 334              		.cfi_offset 4, -8
 335              		.cfi_offset 14, -4
 336 000c 0446     		mov	r4, r0
 130:Core/Src/adc.c ****   {
 131:Core/Src/adc.c ****   /* USER CODE BEGIN ADC1_MspDeInit 0 */
 132:Core/Src/adc.c **** 
 133:Core/Src/adc.c ****   /* USER CODE END ADC1_MspDeInit 0 */
 134:Core/Src/adc.c ****     /* Peripheral clock disable */
 135:Core/Src/adc.c ****     __HAL_RCC_ADC1_CLK_DISABLE();
 337              		.loc 1 135 5 is_stmt 1 view .LVU98
ARM GAS  C:\Users\86390\AppData\Local\Temp\ccXt6oDH.s 			page 10


 338 000e 074A     		ldr	r2, .L26+4
 339 0010 9369     		ldr	r3, [r2, #24]
 340 0012 23F40073 		bic	r3, r3, #512
 341 0016 9361     		str	r3, [r2, #24]
 136:Core/Src/adc.c **** 
 137:Core/Src/adc.c ****     /**ADC1 GPIO Configuration
 138:Core/Src/adc.c ****     PB0     ------> ADC1_IN8
 139:Core/Src/adc.c ****     PB1     ------> ADC1_IN9
 140:Core/Src/adc.c ****     */
 141:Core/Src/adc.c ****     HAL_GPIO_DeInit(GPIOB, GPIO_PIN_0|GPIO_PIN_1);
 342              		.loc 1 141 5 view .LVU99
 343 0018 0321     		movs	r1, #3
 344 001a 0548     		ldr	r0, .L26+8
 345              	.LVL14:
 346              		.loc 1 141 5 is_stmt 0 view .LVU100
 347 001c FFF7FEFF 		bl	HAL_GPIO_DeInit
 348              	.LVL15:
 142:Core/Src/adc.c **** 
 143:Core/Src/adc.c ****     /* ADC1 DMA DeInit */
 144:Core/Src/adc.c ****     HAL_DMA_DeInit(adcHandle->DMA_Handle);
 349              		.loc 1 144 5 is_stmt 1 view .LVU101
 350 0020 206A     		ldr	r0, [r4, #32]
 351 0022 FFF7FEFF 		bl	HAL_DMA_DeInit
 352              	.LVL16:
 145:Core/Src/adc.c ****   /* USER CODE BEGIN ADC1_MspDeInit 1 */
 146:Core/Src/adc.c **** 
 147:Core/Src/adc.c ****   /* USER CODE END ADC1_MspDeInit 1 */
 148:Core/Src/adc.c ****   }
 149:Core/Src/adc.c **** }
 353              		.loc 1 149 1 is_stmt 0 view .LVU102
 354 0026 10BD     		pop	{r4, pc}
 355              	.LVL17:
 356              	.L27:
 357              		.loc 1 149 1 view .LVU103
 358              		.align	2
 359              	.L26:
 360 0028 00240140 		.word	1073816576
 361 002c 00100240 		.word	1073876992
 362 0030 000C0140 		.word	1073810432
 363              		.cfi_endproc
 364              	.LFE70:
 366              		.global	hdma_adc1
 367              		.global	hadc1
 368              		.section	.bss.hadc1,"aw",%nobits
 369              		.align	2
 370              		.set	.LANCHOR0,. + 0
 373              	hadc1:
 374 0000 00000000 		.space	48
 374      00000000 
 374      00000000 
 374      00000000 
 374      00000000 
 375              		.section	.bss.hdma_adc1,"aw",%nobits
 376              		.align	2
 377              		.set	.LANCHOR1,. + 0
 380              	hdma_adc1:
 381 0000 00000000 		.space	68
ARM GAS  C:\Users\86390\AppData\Local\Temp\ccXt6oDH.s 			page 11


 381      00000000 
 381      00000000 
 381      00000000 
 381      00000000 
 382              		.text
 383              	.Letext0:
 384              		.file 2 "d:\\stm32_vscode_bag\\gnu\\arm-none-eabi\\include\\machine\\_default_types.h"
 385              		.file 3 "d:\\stm32_vscode_bag\\gnu\\arm-none-eabi\\include\\sys\\_stdint.h"
 386              		.file 4 "Drivers/CMSIS/Device/ST/STM32F1xx/Include/stm32f103xb.h"
 387              		.file 5 "Drivers/CMSIS/Device/ST/STM32F1xx/Include/stm32f1xx.h"
 388              		.file 6 "Drivers/STM32F1xx_HAL_Driver/Inc/stm32f1xx_hal_def.h"
 389              		.file 7 "Drivers/STM32F1xx_HAL_Driver/Inc/stm32f1xx_hal_gpio.h"
 390              		.file 8 "Drivers/STM32F1xx_HAL_Driver/Inc/stm32f1xx_hal_dma.h"
 391              		.file 9 "Drivers/STM32F1xx_HAL_Driver/Inc/stm32f1xx_hal_adc.h"
 392              		.file 10 "Core/Inc/adc.h"
 393              		.file 11 "Core/Inc/main.h"
ARM GAS  C:\Users\86390\AppData\Local\Temp\ccXt6oDH.s 			page 12

