ARM GAS  C:\Users\86390\AppData\Local\Temp\ccCXGN16.s 			page 1


   1              		.cpu cortex-m3
   2              		.arch armv7-m
   3              		.fpu softvfp
   4              		.eabi_attribute 20, 1
   5              		.eabi_attribute 21, 1
   6              		.eabi_attribute 23, 3
   7              		.eabi_attribute 24, 1
   8              		.eabi_attribute 25, 1
   9              		.eabi_attribute 26, 1
  10              		.eabi_attribute 30, 1
  11              		.eabi_attribute 34, 1
  12              		.eabi_attribute 18, 4
  13              		.file	"AS5600.c"
  14              		.text
  15              	.Ltext0:
  16              		.cfi_sections	.debug_frame
  17              		.section	.text.AS5600_Write_Reg,"ax",%progbits
  18              		.align	1
  19              		.global	AS5600_Write_Reg
  20              		.syntax unified
  21              		.thumb
  22              		.thumb_func
  24              	AS5600_Write_Reg:
  25              	.LVL0:
  26              	.LFB68:
  27              		.file 1 "E:/MCU_Project/stm32/FOC_project/My_FOC/FOC/AS5600.c"
   1:E:/MCU_Project/stm32/FOC_project/My_FOC/FOC\AS5600.c **** #include "AS5600.h"
   2:E:/MCU_Project/stm32/FOC_project/My_FOC/FOC\AS5600.c ****  
   3:E:/MCU_Project/stm32/FOC_project/My_FOC/FOC\AS5600.c **** float angle_prev=0; 
   4:E:/MCU_Project/stm32/FOC_project/My_FOC/FOC\AS5600.c **** int full_rotations=0; // full rotation tracking;
   5:E:/MCU_Project/stm32/FOC_project/My_FOC/FOC\AS5600.c **** 
   6:E:/MCU_Project/stm32/FOC_project/My_FOC/FOC\AS5600.c **** float Now_Angle,Last_Angle,AngleSpeed;		/* 计算转速所需的两个相对角度 */
   7:E:/MCU_Project/stm32/FOC_project/My_FOC/FOC\AS5600.c **** 
   8:E:/MCU_Project/stm32/FOC_project/My_FOC/FOC\AS5600.c **** 
   9:E:/MCU_Project/stm32/FOC_project/My_FOC/FOC\AS5600.c **** //发送单字节时序
  10:E:/MCU_Project/stm32/FOC_project/My_FOC/FOC\AS5600.c **** void AS5600_Write_Reg(unsigned char reg, unsigned char value)
  11:E:/MCU_Project/stm32/FOC_project/My_FOC/FOC\AS5600.c **** {
  28              		.loc 1 11 1 view -0
  29              		.cfi_startproc
  30              		@ args = 0, pretend = 0, frame = 8
  31              		@ frame_needed = 0, uses_anonymous_args = 0
  32              		.loc 1 11 1 is_stmt 0 view .LVU1
  33 0000 00B5     		push	{lr}
  34              	.LCFI0:
  35              		.cfi_def_cfa_offset 4
  36              		.cfi_offset 14, -4
  37 0002 87B0     		sub	sp, sp, #28
  38              	.LCFI1:
  39              		.cfi_def_cfa_offset 32
  40 0004 0246     		mov	r2, r0
  41 0006 8DF81710 		strb	r1, [sp, #23]
  12:E:/MCU_Project/stm32/FOC_project/My_FOC/FOC\AS5600.c **** 	HAL_I2C_Mem_Write(&hi2c1, Slave_Addr, reg, I2C_MEMADD_SIZE_8BIT, &value, 1, 50);
  42              		.loc 1 12 2 is_stmt 1 view .LVU2
  43 000a 3223     		movs	r3, #50
  44 000c 0293     		str	r3, [sp, #8]
  45 000e 0123     		movs	r3, #1
  46 0010 0193     		str	r3, [sp, #4]
ARM GAS  C:\Users\86390\AppData\Local\Temp\ccCXGN16.s 			page 2


  47 0012 0DF11701 		add	r1, sp, #23
  48              	.LVL1:
  49              		.loc 1 12 2 is_stmt 0 view .LVU3
  50 0016 0091     		str	r1, [sp]
  51 0018 6C21     		movs	r1, #108
  52              	.LVL2:
  53              		.loc 1 12 2 view .LVU4
  54 001a 0348     		ldr	r0, .L3
  55              	.LVL3:
  56              		.loc 1 12 2 view .LVU5
  57 001c FFF7FEFF 		bl	HAL_I2C_Mem_Write
  58              	.LVL4:
  13:E:/MCU_Project/stm32/FOC_project/My_FOC/FOC\AS5600.c **** }
  59              		.loc 1 13 1 view .LVU6
  60 0020 07B0     		add	sp, sp, #28
  61              	.LCFI2:
  62              		.cfi_def_cfa_offset 4
  63              		@ sp needed
  64 0022 5DF804FB 		ldr	pc, [sp], #4
  65              	.L4:
  66 0026 00BF     		.align	2
  67              	.L3:
  68 0028 00000000 		.word	hi2c1
  69              		.cfi_endproc
  70              	.LFE68:
  72              		.section	.text.AS5600_Write_Regs,"ax",%progbits
  73              		.align	1
  74              		.global	AS5600_Write_Regs
  75              		.syntax unified
  76              		.thumb
  77              		.thumb_func
  79              	AS5600_Write_Regs:
  80              	.LVL5:
  81              	.LFB69:
  14:E:/MCU_Project/stm32/FOC_project/My_FOC/FOC\AS5600.c **** 
  15:E:/MCU_Project/stm32/FOC_project/My_FOC/FOC\AS5600.c **** 
  16:E:/MCU_Project/stm32/FOC_project/My_FOC/FOC\AS5600.c **** //发送多字节时序
  17:E:/MCU_Project/stm32/FOC_project/My_FOC/FOC\AS5600.c **** void AS5600_Write_Regs(unsigned char reg, unsigned char *value, unsigned char len)
  18:E:/MCU_Project/stm32/FOC_project/My_FOC/FOC\AS5600.c **** {
  82              		.loc 1 18 1 is_stmt 1 view -0
  83              		.cfi_startproc
  84              		@ args = 0, pretend = 0, frame = 0
  85              		@ frame_needed = 0, uses_anonymous_args = 0
  86              		.loc 1 18 1 is_stmt 0 view .LVU8
  87 0000 00B5     		push	{lr}
  88              	.LCFI3:
  89              		.cfi_def_cfa_offset 4
  90              		.cfi_offset 14, -4
  91 0002 85B0     		sub	sp, sp, #20
  92              	.LCFI4:
  93              		.cfi_def_cfa_offset 24
  19:E:/MCU_Project/stm32/FOC_project/My_FOC/FOC\AS5600.c **** 	HAL_I2C_Mem_Write(&hi2c1, Slave_Addr, reg, I2C_MEMADD_SIZE_8BIT, value, len, 50);
  94              		.loc 1 19 2 is_stmt 1 view .LVU9
  95 0004 3223     		movs	r3, #50
  96 0006 0293     		str	r3, [sp, #8]
  97 0008 0192     		str	r2, [sp, #4]
  98 000a 0091     		str	r1, [sp]
ARM GAS  C:\Users\86390\AppData\Local\Temp\ccCXGN16.s 			page 3


  99 000c 0123     		movs	r3, #1
 100 000e 0246     		mov	r2, r0
 101              	.LVL6:
 102              		.loc 1 19 2 is_stmt 0 view .LVU10
 103 0010 6C21     		movs	r1, #108
 104              	.LVL7:
 105              		.loc 1 19 2 view .LVU11
 106 0012 0348     		ldr	r0, .L7
 107              	.LVL8:
 108              		.loc 1 19 2 view .LVU12
 109 0014 FFF7FEFF 		bl	HAL_I2C_Mem_Write
 110              	.LVL9:
  20:E:/MCU_Project/stm32/FOC_project/My_FOC/FOC\AS5600.c **** }
 111              		.loc 1 20 1 view .LVU13
 112 0018 05B0     		add	sp, sp, #20
 113              	.LCFI5:
 114              		.cfi_def_cfa_offset 4
 115              		@ sp needed
 116 001a 5DF804FB 		ldr	pc, [sp], #4
 117              	.L8:
 118 001e 00BF     		.align	2
 119              	.L7:
 120 0020 00000000 		.word	hi2c1
 121              		.cfi_endproc
 122              	.LFE69:
 124              		.section	.text.AS5600_Read_Reg,"ax",%progbits
 125              		.align	1
 126              		.global	AS5600_Read_Reg
 127              		.syntax unified
 128              		.thumb
 129              		.thumb_func
 131              	AS5600_Read_Reg:
 132              	.LVL10:
 133              	.LFB70:
  21:E:/MCU_Project/stm32/FOC_project/My_FOC/FOC\AS5600.c **** 
  22:E:/MCU_Project/stm32/FOC_project/My_FOC/FOC\AS5600.c **** 
  23:E:/MCU_Project/stm32/FOC_project/My_FOC/FOC\AS5600.c **** //IIC读多字节
  24:E:/MCU_Project/stm32/FOC_project/My_FOC/FOC\AS5600.c **** void AS5600_Read_Reg(unsigned char reg, unsigned char* buf, unsigned short len)
  25:E:/MCU_Project/stm32/FOC_project/My_FOC/FOC\AS5600.c **** {
 134              		.loc 1 25 1 is_stmt 1 view -0
 135              		.cfi_startproc
 136              		@ args = 0, pretend = 0, frame = 0
 137              		@ frame_needed = 0, uses_anonymous_args = 0
 138              		.loc 1 25 1 is_stmt 0 view .LVU15
 139 0000 00B5     		push	{lr}
 140              	.LCFI6:
 141              		.cfi_def_cfa_offset 4
 142              		.cfi_offset 14, -4
 143 0002 85B0     		sub	sp, sp, #20
 144              	.LCFI7:
 145              		.cfi_def_cfa_offset 24
  26:E:/MCU_Project/stm32/FOC_project/My_FOC/FOC\AS5600.c **** 	HAL_I2C_Mem_Read(&hi2c1, Slave_Addr, reg, I2C_MEMADD_SIZE_8BIT, buf, len, 50);
 146              		.loc 1 26 2 is_stmt 1 view .LVU16
 147 0004 3223     		movs	r3, #50
 148 0006 0293     		str	r3, [sp, #8]
 149 0008 0192     		str	r2, [sp, #4]
 150 000a 0091     		str	r1, [sp]
ARM GAS  C:\Users\86390\AppData\Local\Temp\ccCXGN16.s 			page 4


 151 000c 0123     		movs	r3, #1
 152 000e 0246     		mov	r2, r0
 153              	.LVL11:
 154              		.loc 1 26 2 is_stmt 0 view .LVU17
 155 0010 6C21     		movs	r1, #108
 156              	.LVL12:
 157              		.loc 1 26 2 view .LVU18
 158 0012 0348     		ldr	r0, .L11
 159              	.LVL13:
 160              		.loc 1 26 2 view .LVU19
 161 0014 FFF7FEFF 		bl	HAL_I2C_Mem_Read
 162              	.LVL14:
  27:E:/MCU_Project/stm32/FOC_project/My_FOC/FOC\AS5600.c **** }
 163              		.loc 1 27 1 view .LVU20
 164 0018 05B0     		add	sp, sp, #20
 165              	.LCFI8:
 166              		.cfi_def_cfa_offset 4
 167              		@ sp needed
 168 001a 5DF804FB 		ldr	pc, [sp], #4
 169              	.L12:
 170 001e 00BF     		.align	2
 171              	.L11:
 172 0020 00000000 		.word	hi2c1
 173              		.cfi_endproc
 174              	.LFE70:
 176              		.global	__aeabi_i2f
 177              		.global	__aeabi_fmul
 178              		.section	.text.GetAngle_Without_Track,"ax",%progbits
 179              		.align	1
 180              		.global	GetAngle_Without_Track
 181              		.syntax unified
 182              		.thumb
 183              		.thumb_func
 185              	GetAngle_Without_Track:
 186              	.LFB71:
  28:E:/MCU_Project/stm32/FOC_project/My_FOC/FOC\AS5600.c **** 
  29:E:/MCU_Project/stm32/FOC_project/My_FOC/FOC\AS5600.c **** 
  30:E:/MCU_Project/stm32/FOC_project/My_FOC/FOC\AS5600.c **** 
  31:E:/MCU_Project/stm32/FOC_project/My_FOC/FOC\AS5600.c **** //得到弧度制的角度，范围在0-6.28
  32:E:/MCU_Project/stm32/FOC_project/My_FOC/FOC\AS5600.c **** float GetAngle_Without_Track(void)
  33:E:/MCU_Project/stm32/FOC_project/My_FOC/FOC\AS5600.c **** {   
 187              		.loc 1 33 1 is_stmt 1 view -0
 188              		.cfi_startproc
 189              		@ args = 0, pretend = 0, frame = 8
 190              		@ frame_needed = 0, uses_anonymous_args = 0
 191 0000 00B5     		push	{lr}
 192              	.LCFI9:
 193              		.cfi_def_cfa_offset 4
 194              		.cfi_offset 14, -4
 195 0002 83B0     		sub	sp, sp, #12
 196              	.LCFI10:
 197              		.cfi_def_cfa_offset 16
  34:E:/MCU_Project/stm32/FOC_project/My_FOC/FOC\AS5600.c **** 	float angle_d;
 198              		.loc 1 34 2 view .LVU22
  35:E:/MCU_Project/stm32/FOC_project/My_FOC/FOC\AS5600.c **** 	int16_t in_angle;
 199              		.loc 1 35 2 view .LVU23
  36:E:/MCU_Project/stm32/FOC_project/My_FOC/FOC\AS5600.c **** 	uint8_t temp[2]={0};
ARM GAS  C:\Users\86390\AppData\Local\Temp\ccCXGN16.s 			page 5


 200              		.loc 1 36 2 view .LVU24
 201              		.loc 1 36 10 is_stmt 0 view .LVU25
 202 0004 0023     		movs	r3, #0
 203 0006 ADF80430 		strh	r3, [sp, #4]	@ movhi
  37:E:/MCU_Project/stm32/FOC_project/My_FOC/FOC\AS5600.c **** 	AS5600_Read_Reg( Angle_Hight_Register_Addr, temp, 2);
 204              		.loc 1 37 2 is_stmt 1 view .LVU26
 205 000a 0222     		movs	r2, #2
 206 000c 01A9     		add	r1, sp, #4
 207 000e 0C20     		movs	r0, #12
 208 0010 FFF7FEFF 		bl	AS5600_Read_Reg
 209              	.LVL15:
  38:E:/MCU_Project/stm32/FOC_project/My_FOC/FOC\AS5600.c **** 	in_angle = ((int16_t)temp[0] <<8) | (temp[1]);
 210              		.loc 1 38 2 view .LVU27
 211              		.loc 1 38 27 is_stmt 0 view .LVU28
 212 0014 9DF80430 		ldrb	r3, [sp, #4]	@ zero_extendqisi2
 213              		.loc 1 38 31 view .LVU29
 214 0018 1B02     		lsls	r3, r3, #8
 215              		.loc 1 38 36 view .LVU30
 216 001a 1BB2     		sxth	r3, r3
 217              		.loc 1 38 43 view .LVU31
 218 001c 9DF80500 		ldrb	r0, [sp, #5]	@ zero_extendqisi2
 219              	.LVL16:
  39:E:/MCU_Project/stm32/FOC_project/My_FOC/FOC\AS5600.c **** 	angle_d = (float)in_angle * (2.0f*PI) / 4096;
 220              		.loc 1 39 2 is_stmt 1 view .LVU32
 221              		.loc 1 39 12 is_stmt 0 view .LVU33
 222 0020 1843     		orrs	r0, r0, r3
 223              	.LVL17:
 224              		.loc 1 39 12 view .LVU34
 225 0022 FFF7FEFF 		bl	__aeabi_i2f
 226              	.LVL18:
 227              		.loc 1 39 28 view .LVU35
 228 0026 0549     		ldr	r1, .L15
 229 0028 FFF7FEFF 		bl	__aeabi_fmul
 230              	.LVL19:
 231              		.loc 1 39 10 view .LVU36
 232 002c 4FF06651 		mov	r1, #964689920
 233 0030 FFF7FEFF 		bl	__aeabi_fmul
 234              	.LVL20:
  40:E:/MCU_Project/stm32/FOC_project/My_FOC/FOC\AS5600.c **** 	return angle_d;
 235              		.loc 1 40 2 is_stmt 1 view .LVU37
  41:E:/MCU_Project/stm32/FOC_project/My_FOC/FOC\AS5600.c **** 	//angle_d为弧度制，范围在0-6.28
  42:E:/MCU_Project/stm32/FOC_project/My_FOC/FOC\AS5600.c **** }
 236              		.loc 1 42 1 is_stmt 0 view .LVU38
 237 0034 03B0     		add	sp, sp, #12
 238              	.LCFI11:
 239              		.cfi_def_cfa_offset 4
 240              		@ sp needed
 241 0036 5DF804FB 		ldr	pc, [sp], #4
 242              	.L16:
 243 003a 00BF     		.align	2
 244              	.L15:
 245 003c C50EC940 		.word	1086918341
 246              		.cfi_endproc
 247              	.LFE71:
 249              		.global	__aeabi_fsub
 250              		.global	__aeabi_fcmpgt
 251              		.global	__aeabi_fadd
ARM GAS  C:\Users\86390\AppData\Local\Temp\ccCXGN16.s 			page 6


 252              		.section	.text.GetAngle,"ax",%progbits
 253              		.align	1
 254              		.global	GetAngle
 255              		.syntax unified
 256              		.thumb
 257              		.thumb_func
 259              	GetAngle:
 260              	.LFB72:
  43:E:/MCU_Project/stm32/FOC_project/My_FOC/FOC\AS5600.c **** 
  44:E:/MCU_Project/stm32/FOC_project/My_FOC/FOC\AS5600.c **** /* 获取转过的弧度 */
  45:E:/MCU_Project/stm32/FOC_project/My_FOC/FOC\AS5600.c **** float GetAngle(void)
  46:E:/MCU_Project/stm32/FOC_project/My_FOC/FOC\AS5600.c **** {
 261              		.loc 1 46 1 is_stmt 1 view -0
 262              		.cfi_startproc
 263              		@ args = 0, pretend = 0, frame = 0
 264              		@ frame_needed = 0, uses_anonymous_args = 0
 265 0000 38B5     		push	{r3, r4, r5, lr}
 266              	.LCFI12:
 267              		.cfi_def_cfa_offset 16
 268              		.cfi_offset 3, -16
 269              		.cfi_offset 4, -12
 270              		.cfi_offset 5, -8
 271              		.cfi_offset 14, -4
  47:E:/MCU_Project/stm32/FOC_project/My_FOC/FOC\AS5600.c ****     float val = GetAngle_Without_Track();
 272              		.loc 1 47 5 view .LVU40
 273              		.loc 1 47 17 is_stmt 0 view .LVU41
 274 0002 FFF7FEFF 		bl	GetAngle_Without_Track
 275              	.LVL21:
 276 0006 0446     		mov	r4, r0
 277              	.LVL22:
  48:E:/MCU_Project/stm32/FOC_project/My_FOC/FOC\AS5600.c ****     float d_angle = val - angle_prev;
 278              		.loc 1 48 5 is_stmt 1 view .LVU42
 279              		.loc 1 48 11 is_stmt 0 view .LVU43
 280 0008 134B     		ldr	r3, .L27
 281 000a 1968     		ldr	r1, [r3]	@ float
 282 000c FFF7FEFF 		bl	__aeabi_fsub
 283              	.LVL23:
 284              		.loc 1 48 11 view .LVU44
 285 0010 0546     		mov	r5, r0
 286              	.LVL24:
  49:E:/MCU_Project/stm32/FOC_project/My_FOC/FOC\AS5600.c ****     //计算旋转的总圈数
  50:E:/MCU_Project/stm32/FOC_project/My_FOC/FOC\AS5600.c ****     //通过判断角度变化是否大于80%的一圈(0.8f*6.28318530718f)来判断是否发生了
  51:E:/MCU_Project/stm32/FOC_project/My_FOC/FOC\AS5600.c ****     if(fabs(d_angle) > (0.8f*2.0f*PI) ) full_rotations += ( d_angle > 0 ) ? -1 : 1; 
 287              		.loc 1 51 5 is_stmt 1 view .LVU45
 288              		.loc 1 51 8 is_stmt 0 view .LVU46
 289 0012 20F00040 		bic	r0, r0, #-2147483648
 290              	.LVL25:
 291              		.loc 1 51 7 view .LVU47
 292 0016 1149     		ldr	r1, .L27+4
 293 0018 FFF7FEFF 		bl	__aeabi_fcmpgt
 294              	.LVL26:
 295 001c 50B1     		cbz	r0, .L18
 296              		.loc 1 51 41 is_stmt 1 discriminator 1 view .LVU48
 297              		.loc 1 51 80 is_stmt 0 discriminator 1 view .LVU49
 298 001e 0021     		movs	r1, #0
 299 0020 2846     		mov	r0, r5
 300 0022 FFF7FEFF 		bl	__aeabi_fcmpgt
ARM GAS  C:\Users\86390\AppData\Local\Temp\ccCXGN16.s 			page 7


 301              	.LVL27:
 302 0026 A0B1     		cbz	r0, .L25
 303              		.loc 1 51 80 view .LVU50
 304 0028 4FF0FF31 		mov	r1, #-1
 305              	.L20:
 306              		.loc 1 51 56 discriminator 5 view .LVU51
 307 002c 0C4A     		ldr	r2, .L27+8
 308 002e 1368     		ldr	r3, [r2]
 309 0030 0B44     		add	r3, r3, r1
 310 0032 1360     		str	r3, [r2]
 311              	.L18:
  52:E:/MCU_Project/stm32/FOC_project/My_FOC/FOC\AS5600.c ****     angle_prev = val;
 312              		.loc 1 52 5 is_stmt 1 view .LVU52
 313              		.loc 1 52 16 is_stmt 0 view .LVU53
 314 0034 084B     		ldr	r3, .L27
 315 0036 1C60     		str	r4, [r3]	@ float
  53:E:/MCU_Project/stm32/FOC_project/My_FOC/FOC\AS5600.c ****     return -((float)full_rotations * 6.28318530718f + angle_prev);	/* 当方向取反时 */
 316              		.loc 1 53 5 is_stmt 1 view .LVU54
 317              		.loc 1 53 14 is_stmt 0 view .LVU55
 318 0038 094B     		ldr	r3, .L27+8
 319 003a 1868     		ldr	r0, [r3]
 320 003c FFF7FEFF 		bl	__aeabi_i2f
 321              	.LVL28:
 322              		.loc 1 53 36 view .LVU56
 323 0040 0849     		ldr	r1, .L27+12
 324 0042 FFF7FEFF 		bl	__aeabi_fmul
 325              	.LVL29:
 326              		.loc 1 53 53 view .LVU57
 327 0046 2146     		mov	r1, r4
 328 0048 FFF7FEFF 		bl	__aeabi_fadd
 329              	.LVL30:
 330              		.loc 1 53 12 view .LVU58
 331 004c 00F10040 		add	r0, r0, #-2147483648
  54:E:/MCU_Project/stm32/FOC_project/My_FOC/FOC\AS5600.c ****     
  55:E:/MCU_Project/stm32/FOC_project/My_FOC/FOC\AS5600.c **** }
 332              		.loc 1 55 1 view .LVU59
 333 0050 38BD     		pop	{r3, r4, r5, pc}
 334              	.LVL31:
 335              	.L25:
  51:E:/MCU_Project/stm32/FOC_project/My_FOC/FOC\AS5600.c ****     angle_prev = val;
 336              		.loc 1 51 80 view .LVU60
 337 0052 0121     		movs	r1, #1
 338 0054 EAE7     		b	.L20
 339              	.L28:
 340 0056 00BF     		.align	2
 341              	.L27:
 342 0058 00000000 		.word	.LANCHOR0
 343 005c 9ED8A040 		.word	1084283038
 344 0060 00000000 		.word	.LANCHOR1
 345 0064 DB0FC940 		.word	1086918619
 346              		.cfi_endproc
 347              	.LFE72:
 349              		.section	.text.Get_Current_Angle,"ax",%progbits
 350              		.align	1
 351              		.global	Get_Current_Angle
 352              		.syntax unified
 353              		.thumb
ARM GAS  C:\Users\86390\AppData\Local\Temp\ccCXGN16.s 			page 8


 354              		.thumb_func
 356              	Get_Current_Angle:
 357              	.LFB73:
  56:E:/MCU_Project/stm32/FOC_project/My_FOC/FOC\AS5600.c **** 
  57:E:/MCU_Project/stm32/FOC_project/My_FOC/FOC\AS5600.c **** /* 获取角度值 */
  58:E:/MCU_Project/stm32/FOC_project/My_FOC/FOC\AS5600.c **** float Get_Current_Angle(void)
  59:E:/MCU_Project/stm32/FOC_project/My_FOC/FOC\AS5600.c **** {
 358              		.loc 1 59 1 is_stmt 1 view -0
 359              		.cfi_startproc
 360              		@ args = 0, pretend = 0, frame = 8
 361              		@ frame_needed = 0, uses_anonymous_args = 0
 362 0000 00B5     		push	{lr}
 363              	.LCFI13:
 364              		.cfi_def_cfa_offset 4
 365              		.cfi_offset 14, -4
 366 0002 83B0     		sub	sp, sp, #12
 367              	.LCFI14:
 368              		.cfi_def_cfa_offset 16
  60:E:/MCU_Project/stm32/FOC_project/My_FOC/FOC\AS5600.c **** 	float angle_d;
 369              		.loc 1 60 2 view .LVU62
  61:E:/MCU_Project/stm32/FOC_project/My_FOC/FOC\AS5600.c **** 	int16_t in_angle;
 370              		.loc 1 61 2 view .LVU63
  62:E:/MCU_Project/stm32/FOC_project/My_FOC/FOC\AS5600.c **** 	uint8_t temp[2]={0};
 371              		.loc 1 62 2 view .LVU64
 372              		.loc 1 62 10 is_stmt 0 view .LVU65
 373 0004 0023     		movs	r3, #0
 374 0006 ADF80430 		strh	r3, [sp, #4]	@ movhi
  63:E:/MCU_Project/stm32/FOC_project/My_FOC/FOC\AS5600.c **** 	AS5600_Read_Reg( Angle_Hight_Register_Addr, temp, 2);
 375              		.loc 1 63 2 is_stmt 1 view .LVU66
 376 000a 0222     		movs	r2, #2
 377 000c 01A9     		add	r1, sp, #4
 378 000e 0C20     		movs	r0, #12
 379 0010 FFF7FEFF 		bl	AS5600_Read_Reg
 380              	.LVL32:
  64:E:/MCU_Project/stm32/FOC_project/My_FOC/FOC\AS5600.c **** 	in_angle = ((int16_t)temp[0] <<8) | (temp[1]);
 381              		.loc 1 64 2 view .LVU67
 382              		.loc 1 64 27 is_stmt 0 view .LVU68
 383 0014 9DF80430 		ldrb	r3, [sp, #4]	@ zero_extendqisi2
 384              		.loc 1 64 31 view .LVU69
 385 0018 1B02     		lsls	r3, r3, #8
 386              		.loc 1 64 36 view .LVU70
 387 001a 1BB2     		sxth	r3, r3
 388              		.loc 1 64 43 view .LVU71
 389 001c 9DF80500 		ldrb	r0, [sp, #5]	@ zero_extendqisi2
 390              	.LVL33:
  65:E:/MCU_Project/stm32/FOC_project/My_FOC/FOC\AS5600.c **** 	angle_d = (float)in_angle * 360 / 4096;
 391              		.loc 1 65 2 is_stmt 1 view .LVU72
 392              		.loc 1 65 12 is_stmt 0 view .LVU73
 393 0020 1843     		orrs	r0, r0, r3
 394              	.LVL34:
 395              		.loc 1 65 12 view .LVU74
 396 0022 FFF7FEFF 		bl	__aeabi_i2f
 397              	.LVL35:
 398              		.loc 1 65 28 view .LVU75
 399 0026 0749     		ldr	r1, .L31
 400 0028 FFF7FEFF 		bl	__aeabi_fmul
 401              	.LVL36:
ARM GAS  C:\Users\86390\AppData\Local\Temp\ccCXGN16.s 			page 9


 402              		.loc 1 65 10 view .LVU76
 403 002c 4FF06651 		mov	r1, #964689920
 404 0030 FFF7FEFF 		bl	__aeabi_fmul
 405              	.LVL37:
 406 0034 0146     		mov	r1, r0
 407              	.LVL38:
  66:E:/MCU_Project/stm32/FOC_project/My_FOC/FOC\AS5600.c **** 	return 360-angle_d;		/* 这里用360度减去读取的角度是确保电机转动的方向与
 408              		.loc 1 66 2 is_stmt 1 view .LVU77
 409              		.loc 1 66 12 is_stmt 0 view .LVU78
 410 0036 0348     		ldr	r0, .L31
 411              	.LVL39:
 412              		.loc 1 66 12 view .LVU79
 413 0038 FFF7FEFF 		bl	__aeabi_fsub
 414              	.LVL40:
  67:E:/MCU_Project/stm32/FOC_project/My_FOC/FOC\AS5600.c **** 							实际角度的大小的变化一致 */
  68:E:/MCU_Project/stm32/FOC_project/My_FOC/FOC\AS5600.c **** }
 415              		.loc 1 68 1 view .LVU80
 416 003c 03B0     		add	sp, sp, #12
 417              	.LCFI15:
 418              		.cfi_def_cfa_offset 4
 419              		@ sp needed
 420 003e 5DF804FB 		ldr	pc, [sp], #4
 421              	.L32:
 422 0042 00BF     		.align	2
 423              	.L31:
 424 0044 0000B443 		.word	1135869952
 425              		.cfi_endproc
 426              	.LFE73:
 428              		.global	__aeabi_fdiv
 429              		.global	__aeabi_fcmpge
 430              		.section	.text.Get_CalibraAngle,"ax",%progbits
 431              		.align	1
 432              		.global	Get_CalibraAngle
 433              		.syntax unified
 434              		.thumb
 435              		.thumb_func
 437              	Get_CalibraAngle:
 438              	.LVL41:
 439              	.LFB74:
  69:E:/MCU_Project/stm32/FOC_project/My_FOC/FOC\AS5600.c **** 
  70:E:/MCU_Project/stm32/FOC_project/My_FOC/FOC\AS5600.c **** /* 零点对齐后电机电角度的实时获取 */
  71:E:/MCU_Project/stm32/FOC_project/My_FOC/FOC\AS5600.c **** float Get_CalibraAngle(float Angle_Offset)	
  72:E:/MCU_Project/stm32/FOC_project/My_FOC/FOC\AS5600.c **** {
 440              		.loc 1 72 1 is_stmt 1 view -0
 441              		.cfi_startproc
 442              		@ args = 0, pretend = 0, frame = 8
 443              		@ frame_needed = 0, uses_anonymous_args = 0
 444              		.loc 1 72 1 is_stmt 0 view .LVU82
 445 0000 10B5     		push	{r4, lr}
 446              	.LCFI16:
 447              		.cfi_def_cfa_offset 8
 448              		.cfi_offset 4, -8
 449              		.cfi_offset 14, -4
 450 0002 82B0     		sub	sp, sp, #8
 451              	.LCFI17:
 452              		.cfi_def_cfa_offset 16
 453 0004 0446     		mov	r4, r0
ARM GAS  C:\Users\86390\AppData\Local\Temp\ccCXGN16.s 			page 10


  73:E:/MCU_Project/stm32/FOC_project/My_FOC/FOC\AS5600.c **** 	float ele_angle;
 454              		.loc 1 73 2 is_stmt 1 view .LVU83
  74:E:/MCU_Project/stm32/FOC_project/My_FOC/FOC\AS5600.c **** 	int16_t in_angle;
 455              		.loc 1 74 2 view .LVU84
  75:E:/MCU_Project/stm32/FOC_project/My_FOC/FOC\AS5600.c **** 	uint8_t temp[2]={0};
 456              		.loc 1 75 2 view .LVU85
 457              		.loc 1 75 10 is_stmt 0 view .LVU86
 458 0006 0023     		movs	r3, #0
 459 0008 ADF80430 		strh	r3, [sp, #4]	@ movhi
  76:E:/MCU_Project/stm32/FOC_project/My_FOC/FOC\AS5600.c **** 	
  77:E:/MCU_Project/stm32/FOC_project/My_FOC/FOC\AS5600.c **** 	AS5600_Read_Reg( Angle_Hight_Register_Addr, temp, 2);
 460              		.loc 1 77 2 is_stmt 1 view .LVU87
 461 000c 0222     		movs	r2, #2
 462 000e 01A9     		add	r1, sp, #4
 463 0010 0C20     		movs	r0, #12
 464              	.LVL42:
 465              		.loc 1 77 2 is_stmt 0 view .LVU88
 466 0012 FFF7FEFF 		bl	AS5600_Read_Reg
 467              	.LVL43:
  78:E:/MCU_Project/stm32/FOC_project/My_FOC/FOC\AS5600.c **** 	in_angle = ((int16_t)temp[0] <<8) | (temp[1]);		/* 获取对应模拟量 */
 468              		.loc 1 78 2 is_stmt 1 view .LVU89
 469              		.loc 1 78 27 is_stmt 0 view .LVU90
 470 0016 9DF80430 		ldrb	r3, [sp, #4]	@ zero_extendqisi2
 471              		.loc 1 78 31 view .LVU91
 472 001a 1B02     		lsls	r3, r3, #8
 473              		.loc 1 78 36 view .LVU92
 474 001c 1BB2     		sxth	r3, r3
 475              		.loc 1 78 43 view .LVU93
 476 001e 9DF80500 		ldrb	r0, [sp, #5]	@ zero_extendqisi2
 477              		.loc 1 78 11 view .LVU94
 478 0022 0343     		orrs	r3, r3, r0
 479              	.LVL44:
  79:E:/MCU_Project/stm32/FOC_project/My_FOC/FOC\AS5600.c **** 
  80:E:/MCU_Project/stm32/FOC_project/My_FOC/FOC\AS5600.c **** 	ele_angle = ((float)((4096-in_angle)%585)*360)/585+Angle_Offset;
 480              		.loc 1 80 2 is_stmt 1 view .LVU95
 481              		.loc 1 80 28 is_stmt 0 view .LVU96
 482 0024 C3F58053 		rsb	r3, r3, #4096
 483              	.LVL45:
 484              		.loc 1 80 38 view .LVU97
 485 0028 114A     		ldr	r2, .L38
 486 002a 82FB0312 		smull	r1, r2, r2, r3
 487 002e D018     		adds	r0, r2, r3
 488              	.LVL46:
 489              		.loc 1 80 38 view .LVU98
 490 0030 DA17     		asrs	r2, r3, #31
 491 0032 C2EB6022 		rsb	r2, r2, r0, asr #9
 492 0036 02EBC202 		add	r2, r2, r2, lsl #3
 493 003a 02EB8212 		add	r2, r2, r2, lsl #6
 494              		.loc 1 80 15 view .LVU99
 495 003e 981A     		subs	r0, r3, r2
 496 0040 FFF7FEFF 		bl	__aeabi_i2f
 497              	.LVL47:
 498              		.loc 1 80 43 view .LVU100
 499 0044 0B49     		ldr	r1, .L38+4
 500 0046 FFF7FEFF 		bl	__aeabi_fmul
 501              	.LVL48:
 502              		.loc 1 80 48 view .LVU101
ARM GAS  C:\Users\86390\AppData\Local\Temp\ccCXGN16.s 			page 11


 503 004a 0B49     		ldr	r1, .L38+8
 504 004c FFF7FEFF 		bl	__aeabi_fdiv
 505              	.LVL49:
 506              		.loc 1 80 12 view .LVU102
 507 0050 2146     		mov	r1, r4
 508 0052 FFF7FEFF 		bl	__aeabi_fadd
 509              	.LVL50:
 510 0056 0446     		mov	r4, r0
 511              	.LVL51:
  81:E:/MCU_Project/stm32/FOC_project/My_FOC/FOC\AS5600.c **** 	if(ele_angle>=360) ele_angle = ele_angle-360;
 512              		.loc 1 81 2 is_stmt 1 view .LVU103
 513              		.loc 1 81 4 is_stmt 0 view .LVU104
 514 0058 0649     		ldr	r1, .L38+4
 515 005a FFF7FEFF 		bl	__aeabi_fcmpge
 516              	.LVL52:
 517              		.loc 1 81 4 view .LVU105
 518 005e 20B1     		cbz	r0, .L33
 519              		.loc 1 81 21 is_stmt 1 discriminator 1 view .LVU106
 520              		.loc 1 81 31 is_stmt 0 discriminator 1 view .LVU107
 521 0060 0449     		ldr	r1, .L38+4
 522 0062 2046     		mov	r0, r4
 523 0064 FFF7FEFF 		bl	__aeabi_fsub
 524              	.LVL53:
 525 0068 0446     		mov	r4, r0
 526              	.LVL54:
  82:E:/MCU_Project/stm32/FOC_project/My_FOC/FOC\AS5600.c **** 
  83:E:/MCU_Project/stm32/FOC_project/My_FOC/FOC\AS5600.c **** 	return ele_angle;
 527              		.loc 1 83 2 is_stmt 1 discriminator 1 view .LVU108
 528              	.L33:
  84:E:/MCU_Project/stm32/FOC_project/My_FOC/FOC\AS5600.c **** }
 529              		.loc 1 84 1 is_stmt 0 view .LVU109
 530 006a 2046     		mov	r0, r4
 531 006c 02B0     		add	sp, sp, #8
 532              	.LCFI18:
 533              		.cfi_def_cfa_offset 8
 534              		@ sp needed
 535 006e 10BD     		pop	{r4, pc}
 536              	.LVL55:
 537              	.L39:
 538              		.loc 1 84 1 view .LVU110
 539              		.align	2
 540              	.L38:
 541 0070 E1000EE0 		.word	-535953183
 542 0074 0000B443 		.word	1135869952
 543 0078 00401244 		.word	1142046720
 544              		.cfi_endproc
 545              	.LFE74:
 547              		.section	.text.Get_AngleSpeed,"ax",%progbits
 548              		.align	1
 549              		.global	Get_AngleSpeed
 550              		.syntax unified
 551              		.thumb
 552              		.thumb_func
 554              	Get_AngleSpeed:
 555              	.LFB75:
  85:E:/MCU_Project/stm32/FOC_project/My_FOC/FOC\AS5600.c **** 
  86:E:/MCU_Project/stm32/FOC_project/My_FOC/FOC\AS5600.c **** /* 获取电机转速(2ms做一次运算) */
ARM GAS  C:\Users\86390\AppData\Local\Temp\ccCXGN16.s 			page 12


  87:E:/MCU_Project/stm32/FOC_project/My_FOC/FOC\AS5600.c **** float Get_AngleSpeed(void)
  88:E:/MCU_Project/stm32/FOC_project/My_FOC/FOC\AS5600.c **** {
 556              		.loc 1 88 1 is_stmt 1 view -0
 557              		.cfi_startproc
 558              		@ args = 0, pretend = 0, frame = 0
 559              		@ frame_needed = 0, uses_anonymous_args = 0
 560 0000 38B5     		push	{r3, r4, r5, lr}
 561              	.LCFI19:
 562              		.cfi_def_cfa_offset 16
 563              		.cfi_offset 3, -16
 564              		.cfi_offset 4, -12
 565              		.cfi_offset 5, -8
 566              		.cfi_offset 14, -4
  89:E:/MCU_Project/stm32/FOC_project/My_FOC/FOC\AS5600.c **** 	float Angle_Speed;
 567              		.loc 1 89 2 view .LVU112
  90:E:/MCU_Project/stm32/FOC_project/My_FOC/FOC\AS5600.c **** 
  91:E:/MCU_Project/stm32/FOC_project/My_FOC/FOC\AS5600.c **** 	Now_Angle = GetAngle();
 568              		.loc 1 91 2 view .LVU113
 569              		.loc 1 91 14 is_stmt 0 view .LVU114
 570 0002 FFF7FEFF 		bl	GetAngle
 571              	.LVL56:
 572 0006 0446     		mov	r4, r0
 573              		.loc 1 91 12 view .LVU115
 574 0008 054B     		ldr	r3, .L42
 575 000a 1860     		str	r0, [r3]	@ float
  92:E:/MCU_Project/stm32/FOC_project/My_FOC/FOC\AS5600.c **** 	Angle_Speed = (Now_Angle-Last_Angle)*500.0;
 576              		.loc 1 92 2 is_stmt 1 view .LVU116
 577              		.loc 1 92 26 is_stmt 0 view .LVU117
 578 000c 054D     		ldr	r5, .L42+4
 579 000e 2968     		ldr	r1, [r5]	@ float
 580 0010 FFF7FEFF 		bl	__aeabi_fsub
 581              	.LVL57:
 582              		.loc 1 92 14 view .LVU118
 583 0014 0449     		ldr	r1, .L42+8
 584 0016 FFF7FEFF 		bl	__aeabi_fmul
 585              	.LVL58:
  93:E:/MCU_Project/stm32/FOC_project/My_FOC/FOC\AS5600.c **** 
  94:E:/MCU_Project/stm32/FOC_project/My_FOC/FOC\AS5600.c **** 	Last_Angle = Now_Angle;
 586              		.loc 1 94 2 is_stmt 1 view .LVU119
 587              		.loc 1 94 13 is_stmt 0 view .LVU120
 588 001a 2C60     		str	r4, [r5]	@ float
  95:E:/MCU_Project/stm32/FOC_project/My_FOC/FOC\AS5600.c **** 
  96:E:/MCU_Project/stm32/FOC_project/My_FOC/FOC\AS5600.c **** 	return Angle_Speed;
 589              		.loc 1 96 2 is_stmt 1 view .LVU121
  97:E:/MCU_Project/stm32/FOC_project/My_FOC/FOC\AS5600.c **** }
 590              		.loc 1 97 1 is_stmt 0 view .LVU122
 591 001c 38BD     		pop	{r3, r4, r5, pc}
 592              	.L43:
 593 001e 00BF     		.align	2
 594              	.L42:
 595 0020 00000000 		.word	.LANCHOR2
 596 0024 00000000 		.word	.LANCHOR3
 597 0028 0000FA43 		.word	1140457472
 598              		.cfi_endproc
 599              	.LFE75:
 601              		.global	AngleSpeed
 602              		.global	Last_Angle
ARM GAS  C:\Users\86390\AppData\Local\Temp\ccCXGN16.s 			page 13


 603              		.global	Now_Angle
 604              		.global	full_rotations
 605              		.global	angle_prev
 606              		.section	.bss.AngleSpeed,"aw",%nobits
 607              		.align	2
 610              	AngleSpeed:
 611 0000 00000000 		.space	4
 612              		.section	.bss.Last_Angle,"aw",%nobits
 613              		.align	2
 614              		.set	.LANCHOR3,. + 0
 617              	Last_Angle:
 618 0000 00000000 		.space	4
 619              		.section	.bss.Now_Angle,"aw",%nobits
 620              		.align	2
 621              		.set	.LANCHOR2,. + 0
 624              	Now_Angle:
 625 0000 00000000 		.space	4
 626              		.section	.bss.angle_prev,"aw",%nobits
 627              		.align	2
 628              		.set	.LANCHOR0,. + 0
 631              	angle_prev:
 632 0000 00000000 		.space	4
 633              		.section	.bss.full_rotations,"aw",%nobits
 634              		.align	2
 635              		.set	.LANCHOR1,. + 0
 638              	full_rotations:
 639 0000 00000000 		.space	4
 640              		.text
 641              	.Letext0:
 642              		.file 2 "d:\\stm32_vscode_bag\\gnu\\arm-none-eabi\\include\\machine\\_default_types.h"
 643              		.file 3 "d:\\stm32_vscode_bag\\gnu\\arm-none-eabi\\include\\sys\\_stdint.h"
 644              		.file 4 "Drivers/CMSIS/Device/ST/STM32F1xx/Include/stm32f103xb.h"
 645              		.file 5 "Drivers/STM32F1xx_HAL_Driver/Inc/stm32f1xx_hal_def.h"
 646              		.file 6 "Drivers/STM32F1xx_HAL_Driver/Inc/stm32f1xx_hal_dma.h"
 647              		.file 7 "Drivers/STM32F1xx_HAL_Driver/Inc/stm32f1xx_hal_i2c.h"
 648              		.file 8 "Core/Inc/i2c.h"
 649              		.file 9 "E:/MCU_Project/stm32/FOC_project/My_FOC/FOC/AS5600.h"
ARM GAS  C:\Users\86390\AppData\Local\Temp\ccCXGN16.s 			page 14


DEFINED SYMBOLS
                            *ABS*:00000000 AS5600.c
C:\Users\86390\AppData\Local\Temp\ccCXGN16.s:18     .text.AS5600_Write_Reg:00000000 $t
C:\Users\86390\AppData\Local\Temp\ccCXGN16.s:24     .text.AS5600_Write_Reg:00000000 AS5600_Write_Reg
C:\Users\86390\AppData\Local\Temp\ccCXGN16.s:68     .text.AS5600_Write_Reg:00000028 $d
C:\Users\86390\AppData\Local\Temp\ccCXGN16.s:73     .text.AS5600_Write_Regs:00000000 $t
C:\Users\86390\AppData\Local\Temp\ccCXGN16.s:79     .text.AS5600_Write_Regs:00000000 AS5600_Write_Regs
C:\Users\86390\AppData\Local\Temp\ccCXGN16.s:120    .text.AS5600_Write_Regs:00000020 $d
C:\Users\86390\AppData\Local\Temp\ccCXGN16.s:125    .text.AS5600_Read_Reg:00000000 $t
C:\Users\86390\AppData\Local\Temp\ccCXGN16.s:131    .text.AS5600_Read_Reg:00000000 AS5600_Read_Reg
C:\Users\86390\AppData\Local\Temp\ccCXGN16.s:172    .text.AS5600_Read_Reg:00000020 $d
C:\Users\86390\AppData\Local\Temp\ccCXGN16.s:179    .text.GetAngle_Without_Track:00000000 $t
C:\Users\86390\AppData\Local\Temp\ccCXGN16.s:185    .text.GetAngle_Without_Track:00000000 GetAngle_Without_Track
C:\Users\86390\AppData\Local\Temp\ccCXGN16.s:245    .text.GetAngle_Without_Track:0000003c $d
C:\Users\86390\AppData\Local\Temp\ccCXGN16.s:253    .text.GetAngle:00000000 $t
C:\Users\86390\AppData\Local\Temp\ccCXGN16.s:259    .text.GetAngle:00000000 GetAngle
C:\Users\86390\AppData\Local\Temp\ccCXGN16.s:342    .text.GetAngle:00000058 $d
C:\Users\86390\AppData\Local\Temp\ccCXGN16.s:350    .text.Get_Current_Angle:00000000 $t
C:\Users\86390\AppData\Local\Temp\ccCXGN16.s:356    .text.Get_Current_Angle:00000000 Get_Current_Angle
C:\Users\86390\AppData\Local\Temp\ccCXGN16.s:424    .text.Get_Current_Angle:00000044 $d
C:\Users\86390\AppData\Local\Temp\ccCXGN16.s:431    .text.Get_CalibraAngle:00000000 $t
C:\Users\86390\AppData\Local\Temp\ccCXGN16.s:437    .text.Get_CalibraAngle:00000000 Get_CalibraAngle
C:\Users\86390\AppData\Local\Temp\ccCXGN16.s:541    .text.Get_CalibraAngle:00000070 $d
C:\Users\86390\AppData\Local\Temp\ccCXGN16.s:548    .text.Get_AngleSpeed:00000000 $t
C:\Users\86390\AppData\Local\Temp\ccCXGN16.s:554    .text.Get_AngleSpeed:00000000 Get_AngleSpeed
C:\Users\86390\AppData\Local\Temp\ccCXGN16.s:595    .text.Get_AngleSpeed:00000020 $d
C:\Users\86390\AppData\Local\Temp\ccCXGN16.s:610    .bss.AngleSpeed:00000000 AngleSpeed
C:\Users\86390\AppData\Local\Temp\ccCXGN16.s:617    .bss.Last_Angle:00000000 Last_Angle
C:\Users\86390\AppData\Local\Temp\ccCXGN16.s:624    .bss.Now_Angle:00000000 Now_Angle
C:\Users\86390\AppData\Local\Temp\ccCXGN16.s:638    .bss.full_rotations:00000000 full_rotations
C:\Users\86390\AppData\Local\Temp\ccCXGN16.s:631    .bss.angle_prev:00000000 angle_prev
C:\Users\86390\AppData\Local\Temp\ccCXGN16.s:607    .bss.AngleSpeed:00000000 $d
C:\Users\86390\AppData\Local\Temp\ccCXGN16.s:613    .bss.Last_Angle:00000000 $d
C:\Users\86390\AppData\Local\Temp\ccCXGN16.s:620    .bss.Now_Angle:00000000 $d
C:\Users\86390\AppData\Local\Temp\ccCXGN16.s:627    .bss.angle_prev:00000000 $d
C:\Users\86390\AppData\Local\Temp\ccCXGN16.s:634    .bss.full_rotations:00000000 $d

UNDEFINED SYMBOLS
HAL_I2C_Mem_Write
hi2c1
HAL_I2C_Mem_Read
__aeabi_i2f
__aeabi_fmul
__aeabi_fsub
__aeabi_fcmpgt
__aeabi_fadd
__aeabi_fdiv
__aeabi_fcmpge
