ARM GAS  C:\Users\86390\AppData\Local\Temp\ccSIReWa.s 			page 1


   1              		.cpu cortex-m3
   2              		.arch armv7-m
   3              		.fpu softvfp
   4              		.eabi_attribute 20, 1
   5              		.eabi_attribute 21, 1
   6              		.eabi_attribute 23, 3
   7              		.eabi_attribute 24, 1
   8              		.eabi_attribute 25, 1
   9              		.eabi_attribute 26, 1
  10              		.eabi_attribute 30, 1
  11              		.eabi_attribute 34, 1
  12              		.eabi_attribute 18, 4
  13              		.file	"Master_PC.c"
  14              		.text
  15              	.Ltext0:
  16              		.cfi_sections	.debug_frame
  17              		.section	.text.HAL_UART_RxCpltCallback,"ax",%progbits
  18              		.align	1
  19              		.global	HAL_UART_RxCpltCallback
  20              		.syntax unified
  21              		.thumb
  22              		.thumb_func
  24              	HAL_UART_RxCpltCallback:
  25              	.LVL0:
  26              	.LFB65:
  27              		.file 1 "E:/study/New_Study/My_FOC/VOFA/Master_PC.c"
   1:E:/study/New_Study/My_FOC/VOFA\Master_PC.c **** #include "Master_PC.h"
   2:E:/study/New_Study/My_FOC/VOFA\Master_PC.c **** // #include "Variable.h"
   3:E:/study/New_Study/My_FOC/VOFA\Master_PC.c **** 
   4:E:/study/New_Study/My_FOC/VOFA\Master_PC.c **** 
   5:E:/study/New_Study/My_FOC/VOFA\Master_PC.c **** uint8_t Rx_Byte;			/* Êé•Êî∂Âà∞Â≠óËäÇÁöÑÂ≠òÊîæÂèòÈáè */
   6:E:/study/New_Study/My_FOC/VOFA\Master_PC.c **** uint8_t Data_BitNum;		/* Êé•Êî∂Âà∞ÁöÑÂÆûÈôÖÊï∞ÊçÆ‰ΩçÊï∞ */
   7:E:/study/New_Study/My_FOC/VOFA\Master_PC.c **** 
   8:E:/study/New_Study/My_FOC/VOFA\Master_PC.c **** uint8_t id_Flag_1;		/* ÂèÇÊï∞Êï∞ÊçÆÂåÖÁ°ÆÂÆö‰º†ÂèÇÂØπË±°ÁöÑÊ†áÂøó1 */
   9:E:/study/New_Study/My_FOC/VOFA\Master_PC.c **** uint8_t id_Flag_2;		/* ÂèÇÊï∞Êï∞ÊçÆÂåÖÁ°ÆÂÆö‰º†ÂèÇÂØπË±°ÁöÑÊ†áÂøó2 */
  10:E:/study/New_Study/My_FOC/VOFA\Master_PC.c **** uint8_t PID_RxFlag;		/* PIDÂèÇÊï∞Ëé∑ÂèñÊ†áÂøó‰Ωç */
  11:E:/study/New_Study/My_FOC/VOFA\Master_PC.c **** uint8_t On_or_off_RxFlag;				/* ÂêØÂä®ÂÅúÊ≠¢‰ΩçËé∑ÂèñÊ†áÂøó‰Ωç */
  12:E:/study/New_Study/My_FOC/VOFA\Master_PC.c **** uint8_t PID_index_1,PID_index_2;
  13:E:/study/New_Study/My_FOC/VOFA\Master_PC.c **** 
  14:E:/study/New_Study/My_FOC/VOFA\Master_PC.c **** uint8_t Get_Vofa_RxData[100];			/* Êé•Êî∂PIDÂèÇÊï∞ÁöÑÊï∞ÊçÆÂåÖ */
  15:E:/study/New_Study/My_FOC/VOFA\Master_PC.c **** uint8_t Get_On_or_off[100];						/* Ëé∑ÂèñÂêØÂä®‰Ωç/ÂÅúÊ≠¢‰Ωç */
  16:E:/study/New_Study/My_FOC/VOFA\Master_PC.c **** 
  17:E:/study/New_Study/My_FOC/VOFA\Master_PC.c **** int Car_on_off;					/* Â∞èËΩ¶ÂêØÂä®ÂÅúÊ≠¢‰Ωç */
  18:E:/study/New_Study/My_FOC/VOFA\Master_PC.c **** 
  19:E:/study/New_Study/My_FOC/VOFA\Master_PC.c **** VofaReceive_PID PID_Mode[2];			/* ÈÄüÂ∫¶ÁéØ/‰ΩçÁΩÆÁéØ */
  20:E:/study/New_Study/My_FOC/VOFA\Master_PC.c **** 
  21:E:/study/New_Study/My_FOC/VOFA\Master_PC.c **** 
  22:E:/study/New_Study/My_FOC/VOFA\Master_PC.c **** /* ÈÄöËøáVofa+Ë∞ÉÂèÇ,Áî®‰∏ä‰ΩçÊú∫‰∏äÊó†Á∫øÈÄö‰ø° */
  23:E:/study/New_Study/My_FOC/VOFA\Master_PC.c **** 
  24:E:/study/New_Study/My_FOC/VOFA\Master_PC.c **** 
  25:E:/study/New_Study/My_FOC/VOFA\Master_PC.c **** /* ËøõÂÖ•UART1Êé•Âèó‰∏≠Êñ≠ */
  26:E:/study/New_Study/My_FOC/VOFA\Master_PC.c **** 
  27:E:/study/New_Study/My_FOC/VOFA\Master_PC.c **** /* ÂèÇÊï∞Êï∞ÊçÆÂåÖÊé•Êî∂ÈÉ®ÂàÜ */
  28:E:/study/New_Study/My_FOC/VOFA\Master_PC.c **** 
  29:E:/study/New_Study/My_FOC/VOFA\Master_PC.c **** /*
  30:E:/study/New_Study/My_FOC/VOFA\Master_PC.c **** 		ÈÄüÂ∫¶ÁéØ:Sp_kp  Sp_ki  Sp_kd
  31:E:/study/New_Study/My_FOC/VOFA\Master_PC.c **** 		‰ΩçÁΩÆÁéØ:Po_kp  Po_ki  Po_kd
ARM GAS  C:\Users\86390\AppData\Local\Temp\ccSIReWa.s 			page 2


  32:E:/study/New_Study/My_FOC/VOFA\Master_PC.c **** 		
  33:E:/study/New_Study/My_FOC/VOFA\Master_PC.c **** 		ÂêØÂä®‰Ωç:Start
  34:E:/study/New_Study/My_FOC/VOFA\Master_PC.c **** 
  35:E:/study/New_Study/My_FOC/VOFA\Master_PC.c **** */
  36:E:/study/New_Study/My_FOC/VOFA\Master_PC.c **** 
  37:E:/study/New_Study/My_FOC/VOFA\Master_PC.c **** /*  	1.PIDÂèÇÊï∞ÈÉ®ÂàÜ
  38:E:/study/New_Study/My_FOC/VOFA\Master_PC.c **** 			->
  39:E:/study/New_Study/My_FOC/VOFA\Master_PC.c **** 			#P1=12.123ÔºÅ   	#P‰∏∫Â∏ßÂ§¥ÔºåP1_x(0<=x<=2)‰∏∫ÊòØÊîπÂèòË∞ÅÁöÑÊ†áÂøó‰ΩçÔºå =ÊòØÊï∞ÊçÆÊî∂ÈõÜÊ†áÂø
  40:E:/study/New_Study/My_FOC/VOFA\Master_PC.c **** 
  41:E:/study/New_Study/My_FOC/VOFA\Master_PC.c **** 			12.123ÊòØÊï∞ÊçÆÊú¨Ë∫´  ÔºÅÊòØÂ∏ßÂ∞æ	
  42:E:/study/New_Study/My_FOC/VOFA\Master_PC.c **** 		
  43:E:/study/New_Study/My_FOC/VOFA\Master_PC.c **** 		
  44:E:/study/New_Study/My_FOC/VOFA\Master_PC.c **** 			2.ÂêØÂä®/ÂÅúÊ≠¢ÈÉ®ÂàÜ
  45:E:/study/New_Study/My_FOC/VOFA\Master_PC.c **** 			->
  46:E:/study/New_Study/My_FOC/VOFA\Master_PC.c **** 			@Flag=1/2!			#@‰∏∫Â∏ßÂ§¥ÔºåFlag‰∏∫ËØ•Ê®°ÂºèÁöÑÊ†áÂøóÂ≠óÁ¨¶ÈÉ®ÂàÜÔºå=ÊòØÊ†áÂøóÊî∂ÈõÜÊ†áÂøó‰Ωç
  47:E:/study/New_Study/My_FOC/VOFA\Master_PC.c **** 			
  48:E:/study/New_Study/My_FOC/VOFA\Master_PC.c **** 			1/2ÊòØÊ†áÂøó‰ΩçÊú¨Ë∫´  ÔºÅÊòØÂ∏ßÂ∞æ
  49:E:/study/New_Study/My_FOC/VOFA\Master_PC.c **** */
  50:E:/study/New_Study/My_FOC/VOFA\Master_PC.c **** 
  51:E:/study/New_Study/My_FOC/VOFA\Master_PC.c **** 
  52:E:/study/New_Study/My_FOC/VOFA\Master_PC.c **** void HAL_UART_RxCpltCallback(UART_HandleTypeDef *huart)
  53:E:/study/New_Study/My_FOC/VOFA\Master_PC.c **** {	
  28              		.loc 1 53 1 view -0
  29              		.cfi_startproc
  30              		@ args = 0, pretend = 0, frame = 0
  31              		@ frame_needed = 0, uses_anonymous_args = 0
  32              		.loc 1 53 1 is_stmt 0 view .LVU1
  33 0000 08B5     		push	{r3, lr}
  34              	.LCFI0:
  35              		.cfi_def_cfa_offset 8
  36              		.cfi_offset 3, -8
  37              		.cfi_offset 14, -4
  54:E:/study/New_Study/My_FOC/VOFA\Master_PC.c ****     if(huart->Instance == USART1)
  38              		.loc 1 54 5 is_stmt 1 view .LVU2
  39              		.loc 1 54 13 is_stmt 0 view .LVU3
  40 0002 0268     		ldr	r2, [r0]
  41              		.loc 1 54 7 view .LVU4
  42 0004 594B     		ldr	r3, .L34
  43 0006 9A42     		cmp	r2, r3
  44 0008 00D0     		beq	.L19
  45              	.LVL1:
  46              	.L1:
  55:E:/study/New_Study/My_FOC/VOFA\Master_PC.c ****     {
  56:E:/study/New_Study/My_FOC/VOFA\Master_PC.c **** 				static uint8_t PID_RxState=0;  		/* PIDÂèÇÊï∞Êé•Êî∂Ê†áÂøó‰Ωç */
  57:E:/study/New_Study/My_FOC/VOFA\Master_PC.c **** 				static uint8_t On_or_off_RxState=0;		/* ÂêØÂä®ÂÅúÊ≠¢‰ΩçÊé•Êî∂Ê†áÂøó‰Ωç */
  58:E:/study/New_Study/My_FOC/VOFA\Master_PC.c **** 				static uint8_t PID_pRxPacket=0;			/* Êé•Êî∂Êï∞ÊçÆ‰ΩçÊï∞(Êï∞ÁªÑÂÖÉÁ¥†Á¥¢Âºï) */
  59:E:/study/New_Study/My_FOC/VOFA\Master_PC.c **** 				static uint8_t On_or_off_pRxPacket=0;			/* Êé•Êî∂Êï∞ÊçÆ‰ΩçÊï∞(Êï∞ÁªÑÂÖÉÁ¥†Á¥¢Âºï) */
  60:E:/study/New_Study/My_FOC/VOFA\Master_PC.c **** 			
  61:E:/study/New_Study/My_FOC/VOFA\Master_PC.c ****         HAL_UART_Receive_IT(&huart1,&Rx_Byte,1);    /* Êé•Âèó‰∏ä‰ΩçÊú∫‰º†Êù•ÁöÑ‰∏Ä‰∏™Â≠óËäÇ */
  62:E:/study/New_Study/My_FOC/VOFA\Master_PC.c **** 				
  63:E:/study/New_Study/My_FOC/VOFA\Master_PC.c **** 				/* PIDÂèÇÊï∞Êé•Êî∂ÈÉ®ÂàÜ */
  64:E:/study/New_Study/My_FOC/VOFA\Master_PC.c **** 				if(PID_RxState==0 && Rx_Byte==0x23)			/* Êé•Êî∂"#" */
  65:E:/study/New_Study/My_FOC/VOFA\Master_PC.c **** 				{
  66:E:/study/New_Study/My_FOC/VOFA\Master_PC.c **** 						PID_RxState=1;
  67:E:/study/New_Study/My_FOC/VOFA\Master_PC.c **** 				}
  68:E:/study/New_Study/My_FOC/VOFA\Master_PC.c **** 				else if(PID_RxState==1 && Rx_Byte==0x50)			/* Êé•Êî∂"P" */
  69:E:/study/New_Study/My_FOC/VOFA\Master_PC.c **** 				{
ARM GAS  C:\Users\86390\AppData\Local\Temp\ccSIReWa.s 			page 3


  70:E:/study/New_Study/My_FOC/VOFA\Master_PC.c **** 						PID_RxState=2;
  71:E:/study/New_Study/My_FOC/VOFA\Master_PC.c **** 				}
  72:E:/study/New_Study/My_FOC/VOFA\Master_PC.c **** 				else if(PID_RxState==2)		/* Êé•Êî∂Ê†áÂøó1(_ÂâçËæπ) */
  73:E:/study/New_Study/My_FOC/VOFA\Master_PC.c **** 				{
  74:E:/study/New_Study/My_FOC/VOFA\Master_PC.c **** 						id_Flag_1=Rx_Byte-48;
  75:E:/study/New_Study/My_FOC/VOFA\Master_PC.c **** 						PID_RxState=3;
  76:E:/study/New_Study/My_FOC/VOFA\Master_PC.c **** 				}
  77:E:/study/New_Study/My_FOC/VOFA\Master_PC.c **** 				else if(PID_RxState==3 && Rx_Byte==0x5F)			/* Êé•Êî∂"_" */
  78:E:/study/New_Study/My_FOC/VOFA\Master_PC.c **** 				{
  79:E:/study/New_Study/My_FOC/VOFA\Master_PC.c **** 						PID_RxState=4;
  80:E:/study/New_Study/My_FOC/VOFA\Master_PC.c **** 				}
  81:E:/study/New_Study/My_FOC/VOFA\Master_PC.c **** 				else if(PID_RxState==4)		/* Êé•Êî∂Ê†áÂøó1(_ÂêéËæπ) */
  82:E:/study/New_Study/My_FOC/VOFA\Master_PC.c **** 				{
  83:E:/study/New_Study/My_FOC/VOFA\Master_PC.c **** 						id_Flag_2=Rx_Byte-48;
  84:E:/study/New_Study/My_FOC/VOFA\Master_PC.c **** 						PID_RxState=5;					
  85:E:/study/New_Study/My_FOC/VOFA\Master_PC.c **** 				}
  86:E:/study/New_Study/My_FOC/VOFA\Master_PC.c **** 				else if(PID_RxState==5 && Rx_Byte==0x3D)		/* Êé•Êî∂"=" */
  87:E:/study/New_Study/My_FOC/VOFA\Master_PC.c **** 				{
  88:E:/study/New_Study/My_FOC/VOFA\Master_PC.c **** 						PID_RxState=6;
  89:E:/study/New_Study/My_FOC/VOFA\Master_PC.c **** 				}
  90:E:/study/New_Study/My_FOC/VOFA\Master_PC.c **** 				else if(PID_RxState==6)			/* Ê≠§Êó∂ÂºÄÂßãÊé•Êî∂ÂèÇÊï∞Êï∞ÊçÆ */
  91:E:/study/New_Study/My_FOC/VOFA\Master_PC.c **** 				{
  92:E:/study/New_Study/My_FOC/VOFA\Master_PC.c **** 						if(Rx_Byte==0x21)		/* Êé•Êî∂Âà∞"!"Âç≥Â∏ßÂ∞æ-->‰ΩúÊ†áÂøó‰ΩçÊ∏ÖÈõ∂Â§ÑÁêÜ */
  93:E:/study/New_Study/My_FOC/VOFA\Master_PC.c **** 						{
  94:E:/study/New_Study/My_FOC/VOFA\Master_PC.c **** 								Data_BitNum=PID_pRxPacket;		/* Ëé∑ÂèñÊé•Êî∂Âà∞ÁöÑÂÆûÈôÖ‰ΩçÊï∞ */		
  95:E:/study/New_Study/My_FOC/VOFA\Master_PC.c **** 								PID_pRxPacket=0;				/* Ê∏ÖÈô§Á¥¢ÂºïÊñπ‰æø‰∏ãÊ¨°ËøõË°åÊé•Êî∂Êï∞ÊçÆ */
  96:E:/study/New_Study/My_FOC/VOFA\Master_PC.c **** 								PID_RxState=0;						/* Ê†áÂøó‰ΩçÊ∏ÖÈõ∂ */
  97:E:/study/New_Study/My_FOC/VOFA\Master_PC.c **** 								PID_RxFlag=1;		/* Ëé∑ÂèñÊ†áÂøó‰ΩçÁΩÆ1 */
  98:E:/study/New_Study/My_FOC/VOFA\Master_PC.c **** 						}
  99:E:/study/New_Study/My_FOC/VOFA\Master_PC.c **** 						else			/* ÊåÅÁª≠Êé•Êî∂Êï∞ÊçÆ */
 100:E:/study/New_Study/My_FOC/VOFA\Master_PC.c **** 						{
 101:E:/study/New_Study/My_FOC/VOFA\Master_PC.c **** 								Get_Vofa_RxData[PID_pRxPacket++]=Rx_Byte;
 102:E:/study/New_Study/My_FOC/VOFA\Master_PC.c **** 						}
 103:E:/study/New_Study/My_FOC/VOFA\Master_PC.c **** 				}
 104:E:/study/New_Study/My_FOC/VOFA\Master_PC.c **** 				
 105:E:/study/New_Study/My_FOC/VOFA\Master_PC.c **** 				
 106:E:/study/New_Study/My_FOC/VOFA\Master_PC.c **** 				/* ÂêØÂä®ÂÅúÊ≠¢‰ΩçÊé•Êî∂ÈÉ®ÂàÜ */
 107:E:/study/New_Study/My_FOC/VOFA\Master_PC.c **** 				if(On_or_off_RxState==0 && Rx_Byte==0x40)		/* Êé•Êî∂"@" */	
 108:E:/study/New_Study/My_FOC/VOFA\Master_PC.c **** 				{
 109:E:/study/New_Study/My_FOC/VOFA\Master_PC.c **** 						On_or_off_RxState=1;
 110:E:/study/New_Study/My_FOC/VOFA\Master_PC.c **** 				}
 111:E:/study/New_Study/My_FOC/VOFA\Master_PC.c **** 				else if(On_or_off_RxState==1 && Rx_Byte==0x46)		/* Êé•Êî∂"F" */
 112:E:/study/New_Study/My_FOC/VOFA\Master_PC.c **** 				{
 113:E:/study/New_Study/My_FOC/VOFA\Master_PC.c **** 						On_or_off_RxState=2;
 114:E:/study/New_Study/My_FOC/VOFA\Master_PC.c **** 				}
 115:E:/study/New_Study/My_FOC/VOFA\Master_PC.c **** 				else if(On_or_off_RxState==2 && Rx_Byte==0x6C)			/* Êé•Êî∂"l" */
 116:E:/study/New_Study/My_FOC/VOFA\Master_PC.c **** 				{
 117:E:/study/New_Study/My_FOC/VOFA\Master_PC.c **** 						On_or_off_RxState=3;
 118:E:/study/New_Study/My_FOC/VOFA\Master_PC.c **** 				}
 119:E:/study/New_Study/My_FOC/VOFA\Master_PC.c **** 				else if(On_or_off_RxState==3 && Rx_Byte==0x61)					/* Êé•Êî∂"a" */
 120:E:/study/New_Study/My_FOC/VOFA\Master_PC.c **** 				{
 121:E:/study/New_Study/My_FOC/VOFA\Master_PC.c **** 						On_or_off_RxState=4;
 122:E:/study/New_Study/My_FOC/VOFA\Master_PC.c **** 				}
 123:E:/study/New_Study/My_FOC/VOFA\Master_PC.c **** 				else if(On_or_off_RxState==4 && Rx_Byte==0x67)					/* Êé•Êî∂"g" */
 124:E:/study/New_Study/My_FOC/VOFA\Master_PC.c **** 				{
 125:E:/study/New_Study/My_FOC/VOFA\Master_PC.c **** 						On_or_off_RxState=5;
 126:E:/study/New_Study/My_FOC/VOFA\Master_PC.c **** 				}
ARM GAS  C:\Users\86390\AppData\Local\Temp\ccSIReWa.s 			page 4


 127:E:/study/New_Study/My_FOC/VOFA\Master_PC.c **** 				else if(On_or_off_RxState==5 && Rx_Byte==0x3D)			/* Êé•Êî∂"=" */
 128:E:/study/New_Study/My_FOC/VOFA\Master_PC.c **** 				{
 129:E:/study/New_Study/My_FOC/VOFA\Master_PC.c **** 						On_or_off_RxState=6;
 130:E:/study/New_Study/My_FOC/VOFA\Master_PC.c **** 				}
 131:E:/study/New_Study/My_FOC/VOFA\Master_PC.c **** 				else if(On_or_off_RxState==6)			/* ÂºÄÂßãÊé•ÂèóÊ†áÂøó‰Ωç */
 132:E:/study/New_Study/My_FOC/VOFA\Master_PC.c **** 				{
 133:E:/study/New_Study/My_FOC/VOFA\Master_PC.c **** 						if(Rx_Byte==0x21)			/* Âà§Êñ≠Êé•Êî∂Âà∞Â∏ßÂ∞æ"!"Âêé,ÁªìÊùüÊú¨Ê¨°ÂêØÂä®ÂÅúÊ≠¢‰ΩçÁöÑËé∑Âèñ */
 134:E:/study/New_Study/My_FOC/VOFA\Master_PC.c **** 						{
 135:E:/study/New_Study/My_FOC/VOFA\Master_PC.c **** 								On_or_off_RxState=0;				/* Ê†áÂøó‰ΩçÊ∏ÖÈõ∂ */
 136:E:/study/New_Study/My_FOC/VOFA\Master_PC.c **** 								On_or_off_RxFlag=1;				/* Ëé∑ÂèñÊ†áÂøó‰ΩçÁΩÆ1 */
 137:E:/study/New_Study/My_FOC/VOFA\Master_PC.c **** 								On_or_off_pRxPacket=0;
 138:E:/study/New_Study/My_FOC/VOFA\Master_PC.c **** 						}
 139:E:/study/New_Study/My_FOC/VOFA\Master_PC.c **** 						else
 140:E:/study/New_Study/My_FOC/VOFA\Master_PC.c **** 						{
 141:E:/study/New_Study/My_FOC/VOFA\Master_PC.c **** 								Get_On_or_off[On_or_off_pRxPacket++]=Rx_Byte-48;		/* Ëé∑ÂèñÂØπÂ∫îÂêØÂä®ÂÅúÊ≠¢‰Ωç(1/2) */
 142:E:/study/New_Study/My_FOC/VOFA\Master_PC.c **** 						}
 143:E:/study/New_Study/My_FOC/VOFA\Master_PC.c **** 				}
 144:E:/study/New_Study/My_FOC/VOFA\Master_PC.c ****     }
 145:E:/study/New_Study/My_FOC/VOFA\Master_PC.c **** }
  47              		.loc 1 145 1 view .LVU5
  48 000a 08BD     		pop	{r3, pc}
  49              	.LVL2:
  50              	.L19:
  51              	.LBB2:
  56:E:/study/New_Study/My_FOC/VOFA\Master_PC.c **** 				static uint8_t On_or_off_RxState=0;		/* ÂêØÂä®ÂÅúÊ≠¢‰ΩçÊé•Êî∂Ê†áÂøó‰Ωç */
  52              		.loc 1 56 5 is_stmt 1 view .LVU6
  57:E:/study/New_Study/My_FOC/VOFA\Master_PC.c **** 				static uint8_t PID_pRxPacket=0;			/* Êé•Êî∂Êï∞ÊçÆ‰ΩçÊï∞(Êï∞ÁªÑÂÖÉÁ¥†Á¥¢Âºï) */
  53              		.loc 1 57 5 view .LVU7
  58:E:/study/New_Study/My_FOC/VOFA\Master_PC.c **** 				static uint8_t On_or_off_pRxPacket=0;			/* Êé•Êî∂Êï∞ÊçÆ‰ΩçÊï∞(Êï∞ÁªÑÂÖÉÁ¥†Á¥¢Âºï) */
  54              		.loc 1 58 5 view .LVU8
  59:E:/study/New_Study/My_FOC/VOFA\Master_PC.c **** 			
  55              		.loc 1 59 5 view .LVU9
  61:E:/study/New_Study/My_FOC/VOFA\Master_PC.c **** 				
  56              		.loc 1 61 9 view .LVU10
  57 000c 0122     		movs	r2, #1
  58 000e 5849     		ldr	r1, .L34+4
  59 0010 5848     		ldr	r0, .L34+8
  60              	.LVL3:
  61:E:/study/New_Study/My_FOC/VOFA\Master_PC.c **** 				
  61              		.loc 1 61 9 is_stmt 0 view .LVU11
  62 0012 FFF7FEFF 		bl	HAL_UART_Receive_IT
  63              	.LVL4:
  64:E:/study/New_Study/My_FOC/VOFA\Master_PC.c **** 				{
  64              		.loc 1 64 5 is_stmt 1 view .LVU12
  64:E:/study/New_Study/My_FOC/VOFA\Master_PC.c **** 				{
  65              		.loc 1 64 19 is_stmt 0 view .LVU13
  66 0016 584B     		ldr	r3, .L34+12
  67 0018 1B78     		ldrb	r3, [r3]	@ zero_extendqisi2
  64:E:/study/New_Study/My_FOC/VOFA\Master_PC.c **** 				{
  68              		.loc 1 64 7 view .LVU14
  69 001a 1BB9     		cbnz	r3, .L3
  64:E:/study/New_Study/My_FOC/VOFA\Master_PC.c **** 				{
  70              		.loc 1 64 33 discriminator 1 view .LVU15
  71 001c 544A     		ldr	r2, .L34+4
  72 001e 1278     		ldrb	r2, [r2]	@ zero_extendqisi2
  64:E:/study/New_Study/My_FOC/VOFA\Master_PC.c **** 				{
  73              		.loc 1 64 23 discriminator 1 view .LVU16
ARM GAS  C:\Users\86390\AppData\Local\Temp\ccSIReWa.s 			page 5


  74 0020 232A     		cmp	r2, #35
  75 0022 16D0     		beq	.L20
  76              	.L3:
  68:E:/study/New_Study/My_FOC/VOFA\Master_PC.c **** 				{
  77              		.loc 1 68 10 is_stmt 1 view .LVU17
  68:E:/study/New_Study/My_FOC/VOFA\Master_PC.c **** 				{
  78              		.loc 1 68 12 is_stmt 0 view .LVU18
  79 0024 012B     		cmp	r3, #1
  80 0026 18D0     		beq	.L21
  81              	.L5:
  72:E:/study/New_Study/My_FOC/VOFA\Master_PC.c **** 				{
  82              		.loc 1 72 10 is_stmt 1 view .LVU19
  72:E:/study/New_Study/My_FOC/VOFA\Master_PC.c **** 				{
  83              		.loc 1 72 12 is_stmt 0 view .LVU20
  84 0028 022B     		cmp	r3, #2
  85 002a 1ED0     		beq	.L22
  77:E:/study/New_Study/My_FOC/VOFA\Master_PC.c **** 				{
  86              		.loc 1 77 10 is_stmt 1 view .LVU21
  77:E:/study/New_Study/My_FOC/VOFA\Master_PC.c **** 				{
  87              		.loc 1 77 12 is_stmt 0 view .LVU22
  88 002c 032B     		cmp	r3, #3
  89 002e 43D0     		beq	.L23
  90              	.L7:
  81:E:/study/New_Study/My_FOC/VOFA\Master_PC.c **** 				{
  91              		.loc 1 81 10 is_stmt 1 view .LVU23
  81:E:/study/New_Study/My_FOC/VOFA\Master_PC.c **** 				{
  92              		.loc 1 81 12 is_stmt 0 view .LVU24
  93 0030 042B     		cmp	r3, #4
  94 0032 49D0     		beq	.L24
  86:E:/study/New_Study/My_FOC/VOFA\Master_PC.c **** 				{
  95              		.loc 1 86 10 is_stmt 1 view .LVU25
  86:E:/study/New_Study/My_FOC/VOFA\Master_PC.c **** 				{
  96              		.loc 1 86 12 is_stmt 0 view .LVU26
  97 0034 052B     		cmp	r3, #5
  98 0036 50D0     		beq	.L25
  99              	.L9:
  90:E:/study/New_Study/My_FOC/VOFA\Master_PC.c **** 				{
 100              		.loc 1 90 10 is_stmt 1 view .LVU27
  90:E:/study/New_Study/My_FOC/VOFA\Master_PC.c **** 				{
 101              		.loc 1 90 12 is_stmt 0 view .LVU28
 102 0038 062B     		cmp	r3, #6
 103 003a 1ED1     		bne	.L4
  92:E:/study/New_Study/My_FOC/VOFA\Master_PC.c **** 						{
 104              		.loc 1 92 7 is_stmt 1 view .LVU29
  92:E:/study/New_Study/My_FOC/VOFA\Master_PC.c **** 						{
 105              		.loc 1 92 17 is_stmt 0 view .LVU30
 106 003c 4C4B     		ldr	r3, .L34+4
 107 003e 1B78     		ldrb	r3, [r3]	@ zero_extendqisi2
  92:E:/study/New_Study/My_FOC/VOFA\Master_PC.c **** 						{
 108              		.loc 1 92 9 view .LVU31
 109 0040 212B     		cmp	r3, #33
 110 0042 52D0     		beq	.L26
 101:E:/study/New_Study/My_FOC/VOFA\Master_PC.c **** 						}
 111              		.loc 1 101 9 is_stmt 1 view .LVU32
 101:E:/study/New_Study/My_FOC/VOFA\Master_PC.c **** 						}
 112              		.loc 1 101 38 is_stmt 0 view .LVU33
 113 0044 4D49     		ldr	r1, .L34+16
ARM GAS  C:\Users\86390\AppData\Local\Temp\ccSIReWa.s 			page 6


 114 0046 0A78     		ldrb	r2, [r1]	@ zero_extendqisi2
 115 0048 501C     		adds	r0, r2, #1
 116 004a 0870     		strb	r0, [r1]
 101:E:/study/New_Study/My_FOC/VOFA\Master_PC.c **** 						}
 117              		.loc 1 101 41 view .LVU34
 118 004c 4C49     		ldr	r1, .L34+20
 119 004e 8B54     		strb	r3, [r1, r2]
 120 0050 13E0     		b	.L4
 121              	.L20:
  66:E:/study/New_Study/My_FOC/VOFA\Master_PC.c **** 				}
 122              		.loc 1 66 7 is_stmt 1 view .LVU35
  66:E:/study/New_Study/My_FOC/VOFA\Master_PC.c **** 				}
 123              		.loc 1 66 18 is_stmt 0 view .LVU36
 124 0052 494B     		ldr	r3, .L34+12
 125 0054 0122     		movs	r2, #1
 126 0056 1A70     		strb	r2, [r3]
 127 0058 0FE0     		b	.L4
 128              	.L21:
  68:E:/study/New_Study/My_FOC/VOFA\Master_PC.c **** 				{
 129              		.loc 1 68 38 discriminator 1 view .LVU37
 130 005a 454A     		ldr	r2, .L34+4
 131 005c 1278     		ldrb	r2, [r2]	@ zero_extendqisi2
  68:E:/study/New_Study/My_FOC/VOFA\Master_PC.c **** 				{
 132              		.loc 1 68 28 discriminator 1 view .LVU38
 133 005e 502A     		cmp	r2, #80
 134 0060 E2D1     		bne	.L5
  70:E:/study/New_Study/My_FOC/VOFA\Master_PC.c **** 				}
 135              		.loc 1 70 7 is_stmt 1 view .LVU39
  70:E:/study/New_Study/My_FOC/VOFA\Master_PC.c **** 				}
 136              		.loc 1 70 18 is_stmt 0 view .LVU40
 137 0062 454B     		ldr	r3, .L34+12
 138 0064 0222     		movs	r2, #2
 139 0066 1A70     		strb	r2, [r3]
 140 0068 07E0     		b	.L4
 141              	.L22:
  74:E:/study/New_Study/My_FOC/VOFA\Master_PC.c **** 						PID_RxState=3;
 142              		.loc 1 74 7 is_stmt 1 view .LVU41
  74:E:/study/New_Study/My_FOC/VOFA\Master_PC.c **** 						PID_RxState=3;
 143              		.loc 1 74 24 is_stmt 0 view .LVU42
 144 006a 414B     		ldr	r3, .L34+4
 145 006c 1B78     		ldrb	r3, [r3]	@ zero_extendqisi2
 146 006e 303B     		subs	r3, r3, #48
  74:E:/study/New_Study/My_FOC/VOFA\Master_PC.c **** 						PID_RxState=3;
 147              		.loc 1 74 16 view .LVU43
 148 0070 444A     		ldr	r2, .L34+24
 149 0072 1370     		strb	r3, [r2]
  75:E:/study/New_Study/My_FOC/VOFA\Master_PC.c **** 				}
 150              		.loc 1 75 7 is_stmt 1 view .LVU44
  75:E:/study/New_Study/My_FOC/VOFA\Master_PC.c **** 				}
 151              		.loc 1 75 18 is_stmt 0 view .LVU45
 152 0074 404B     		ldr	r3, .L34+12
 153 0076 0322     		movs	r2, #3
 154 0078 1A70     		strb	r2, [r3]
 155              	.L4:
 107:E:/study/New_Study/My_FOC/VOFA\Master_PC.c **** 				{
 156              		.loc 1 107 5 is_stmt 1 view .LVU46
 107:E:/study/New_Study/My_FOC/VOFA\Master_PC.c **** 				{
ARM GAS  C:\Users\86390\AppData\Local\Temp\ccSIReWa.s 			page 7


 157              		.loc 1 107 25 is_stmt 0 view .LVU47
 158 007a 434B     		ldr	r3, .L34+28
 159 007c 1B78     		ldrb	r3, [r3]	@ zero_extendqisi2
 107:E:/study/New_Study/My_FOC/VOFA\Master_PC.c **** 				{
 160              		.loc 1 107 7 view .LVU48
 161 007e 1BB9     		cbnz	r3, .L11
 107:E:/study/New_Study/My_FOC/VOFA\Master_PC.c **** 				{
 162              		.loc 1 107 39 discriminator 1 view .LVU49
 163 0080 3B4A     		ldr	r2, .L34+4
 164 0082 1278     		ldrb	r2, [r2]	@ zero_extendqisi2
 107:E:/study/New_Study/My_FOC/VOFA\Master_PC.c **** 				{
 165              		.loc 1 107 29 discriminator 1 view .LVU50
 166 0084 402A     		cmp	r2, #64
 167 0086 3CD0     		beq	.L27
 168              	.L11:
 111:E:/study/New_Study/My_FOC/VOFA\Master_PC.c **** 				{
 169              		.loc 1 111 10 is_stmt 1 view .LVU51
 111:E:/study/New_Study/My_FOC/VOFA\Master_PC.c **** 				{
 170              		.loc 1 111 12 is_stmt 0 view .LVU52
 171 0088 012B     		cmp	r3, #1
 172 008a 3ED0     		beq	.L28
 173              	.L12:
 115:E:/study/New_Study/My_FOC/VOFA\Master_PC.c **** 				{
 174              		.loc 1 115 10 is_stmt 1 view .LVU53
 115:E:/study/New_Study/My_FOC/VOFA\Master_PC.c **** 				{
 175              		.loc 1 115 12 is_stmt 0 view .LVU54
 176 008c 022B     		cmp	r3, #2
 177 008e 44D0     		beq	.L29
 178              	.L13:
 119:E:/study/New_Study/My_FOC/VOFA\Master_PC.c **** 				{
 179              		.loc 1 119 10 is_stmt 1 view .LVU55
 119:E:/study/New_Study/My_FOC/VOFA\Master_PC.c **** 				{
 180              		.loc 1 119 12 is_stmt 0 view .LVU56
 181 0090 032B     		cmp	r3, #3
 182 0092 4AD0     		beq	.L30
 183              	.L14:
 123:E:/study/New_Study/My_FOC/VOFA\Master_PC.c **** 				{
 184              		.loc 1 123 10 is_stmt 1 view .LVU57
 123:E:/study/New_Study/My_FOC/VOFA\Master_PC.c **** 				{
 185              		.loc 1 123 12 is_stmt 0 view .LVU58
 186 0094 042B     		cmp	r3, #4
 187 0096 50D0     		beq	.L31
 188              	.L15:
 127:E:/study/New_Study/My_FOC/VOFA\Master_PC.c **** 				{
 189              		.loc 1 127 10 is_stmt 1 view .LVU59
 127:E:/study/New_Study/My_FOC/VOFA\Master_PC.c **** 				{
 190              		.loc 1 127 12 is_stmt 0 view .LVU60
 191 0098 052B     		cmp	r3, #5
 192 009a 56D0     		beq	.L32
 193              	.L16:
 131:E:/study/New_Study/My_FOC/VOFA\Master_PC.c **** 				{
 194              		.loc 1 131 10 is_stmt 1 view .LVU61
 131:E:/study/New_Study/My_FOC/VOFA\Master_PC.c **** 				{
 195              		.loc 1 131 12 is_stmt 0 view .LVU62
 196 009c 062B     		cmp	r3, #6
 197 009e B4D1     		bne	.L1
 133:E:/study/New_Study/My_FOC/VOFA\Master_PC.c **** 						{
ARM GAS  C:\Users\86390\AppData\Local\Temp\ccSIReWa.s 			page 8


 198              		.loc 1 133 7 is_stmt 1 view .LVU63
 133:E:/study/New_Study/My_FOC/VOFA\Master_PC.c **** 						{
 199              		.loc 1 133 17 is_stmt 0 view .LVU64
 200 00a0 334B     		ldr	r3, .L34+4
 201 00a2 1B78     		ldrb	r3, [r3]	@ zero_extendqisi2
 133:E:/study/New_Study/My_FOC/VOFA\Master_PC.c **** 						{
 202              		.loc 1 133 9 view .LVU65
 203 00a4 212B     		cmp	r3, #33
 204 00a6 58D0     		beq	.L33
 141:E:/study/New_Study/My_FOC/VOFA\Master_PC.c **** 						}
 205              		.loc 1 141 9 is_stmt 1 view .LVU66
 141:E:/study/New_Study/My_FOC/VOFA\Master_PC.c **** 						}
 206              		.loc 1 141 42 is_stmt 0 view .LVU67
 207 00a8 3849     		ldr	r1, .L34+32
 208 00aa 0A78     		ldrb	r2, [r1]	@ zero_extendqisi2
 209 00ac 501C     		adds	r0, r2, #1
 210 00ae 0870     		strb	r0, [r1]
 141:E:/study/New_Study/My_FOC/VOFA\Master_PC.c **** 						}
 211              		.loc 1 141 53 view .LVU68
 212 00b0 303B     		subs	r3, r3, #48
 141:E:/study/New_Study/My_FOC/VOFA\Master_PC.c **** 						}
 213              		.loc 1 141 45 view .LVU69
 214 00b2 3749     		ldr	r1, .L34+36
 215 00b4 8B54     		strb	r3, [r1, r2]
 216              	.LBE2:
 217              		.loc 1 145 1 view .LVU70
 218 00b6 A8E7     		b	.L1
 219              	.L23:
 220              	.LBB3:
  77:E:/study/New_Study/My_FOC/VOFA\Master_PC.c **** 				{
 221              		.loc 1 77 38 discriminator 1 view .LVU71
 222 00b8 2D4A     		ldr	r2, .L34+4
 223 00ba 1278     		ldrb	r2, [r2]	@ zero_extendqisi2
  77:E:/study/New_Study/My_FOC/VOFA\Master_PC.c **** 				{
 224              		.loc 1 77 28 discriminator 1 view .LVU72
 225 00bc 5F2A     		cmp	r2, #95
 226 00be B7D1     		bne	.L7
  79:E:/study/New_Study/My_FOC/VOFA\Master_PC.c **** 				}
 227              		.loc 1 79 7 is_stmt 1 view .LVU73
  79:E:/study/New_Study/My_FOC/VOFA\Master_PC.c **** 				}
 228              		.loc 1 79 18 is_stmt 0 view .LVU74
 229 00c0 2D4B     		ldr	r3, .L34+12
 230 00c2 0422     		movs	r2, #4
 231 00c4 1A70     		strb	r2, [r3]
 232 00c6 D8E7     		b	.L4
 233              	.L24:
  83:E:/study/New_Study/My_FOC/VOFA\Master_PC.c **** 						PID_RxState=5;					
 234              		.loc 1 83 7 is_stmt 1 view .LVU75
  83:E:/study/New_Study/My_FOC/VOFA\Master_PC.c **** 						PID_RxState=5;					
 235              		.loc 1 83 24 is_stmt 0 view .LVU76
 236 00c8 294B     		ldr	r3, .L34+4
 237 00ca 1B78     		ldrb	r3, [r3]	@ zero_extendqisi2
 238 00cc 303B     		subs	r3, r3, #48
  83:E:/study/New_Study/My_FOC/VOFA\Master_PC.c **** 						PID_RxState=5;					
 239              		.loc 1 83 16 view .LVU77
 240 00ce 314A     		ldr	r2, .L34+40
 241 00d0 1370     		strb	r3, [r2]
ARM GAS  C:\Users\86390\AppData\Local\Temp\ccSIReWa.s 			page 9


  84:E:/study/New_Study/My_FOC/VOFA\Master_PC.c **** 				}
 242              		.loc 1 84 7 is_stmt 1 view .LVU78
  84:E:/study/New_Study/My_FOC/VOFA\Master_PC.c **** 				}
 243              		.loc 1 84 18 is_stmt 0 view .LVU79
 244 00d2 294B     		ldr	r3, .L34+12
 245 00d4 0522     		movs	r2, #5
 246 00d6 1A70     		strb	r2, [r3]
 247 00d8 CFE7     		b	.L4
 248              	.L25:
  86:E:/study/New_Study/My_FOC/VOFA\Master_PC.c **** 				{
 249              		.loc 1 86 38 discriminator 1 view .LVU80
 250 00da 254A     		ldr	r2, .L34+4
 251 00dc 1278     		ldrb	r2, [r2]	@ zero_extendqisi2
  86:E:/study/New_Study/My_FOC/VOFA\Master_PC.c **** 				{
 252              		.loc 1 86 28 discriminator 1 view .LVU81
 253 00de 3D2A     		cmp	r2, #61
 254 00e0 AAD1     		bne	.L9
  88:E:/study/New_Study/My_FOC/VOFA\Master_PC.c **** 				}
 255              		.loc 1 88 7 is_stmt 1 view .LVU82
  88:E:/study/New_Study/My_FOC/VOFA\Master_PC.c **** 				}
 256              		.loc 1 88 18 is_stmt 0 view .LVU83
 257 00e2 254B     		ldr	r3, .L34+12
 258 00e4 0622     		movs	r2, #6
 259 00e6 1A70     		strb	r2, [r3]
 260 00e8 C7E7     		b	.L4
 261              	.L26:
  94:E:/study/New_Study/My_FOC/VOFA\Master_PC.c **** 								PID_pRxPacket=0;				/* Ê∏ÖÈô§Á¥¢ÂºïÊñπ‰æø‰∏ãÊ¨°ËøõË°åÊé•Êî∂Êï∞ÊçÆ */
 262              		.loc 1 94 9 is_stmt 1 view .LVU84
  94:E:/study/New_Study/My_FOC/VOFA\Master_PC.c **** 								PID_pRxPacket=0;				/* Ê∏ÖÈô§Á¥¢ÂºïÊñπ‰æø‰∏ãÊ¨°ËøõË°åÊé•Êî∂Êï∞ÊçÆ */
 263              		.loc 1 94 20 is_stmt 0 view .LVU85
 264 00ea 244A     		ldr	r2, .L34+16
 265 00ec 1178     		ldrb	r1, [r2]	@ zero_extendqisi2
 266 00ee 2A4B     		ldr	r3, .L34+44
 267 00f0 1970     		strb	r1, [r3]
  95:E:/study/New_Study/My_FOC/VOFA\Master_PC.c **** 								PID_RxState=0;						/* Ê†áÂøó‰ΩçÊ∏ÖÈõ∂ */
 268              		.loc 1 95 9 is_stmt 1 view .LVU86
  95:E:/study/New_Study/My_FOC/VOFA\Master_PC.c **** 								PID_RxState=0;						/* Ê†áÂøó‰ΩçÊ∏ÖÈõ∂ */
 269              		.loc 1 95 22 is_stmt 0 view .LVU87
 270 00f2 0023     		movs	r3, #0
 271 00f4 1370     		strb	r3, [r2]
  96:E:/study/New_Study/My_FOC/VOFA\Master_PC.c **** 								PID_RxFlag=1;		/* Ëé∑ÂèñÊ†áÂøó‰ΩçÁΩÆ1 */
 272              		.loc 1 96 9 is_stmt 1 view .LVU88
  96:E:/study/New_Study/My_FOC/VOFA\Master_PC.c **** 								PID_RxFlag=1;		/* Ëé∑ÂèñÊ†áÂøó‰ΩçÁΩÆ1 */
 273              		.loc 1 96 20 is_stmt 0 view .LVU89
 274 00f6 204A     		ldr	r2, .L34+12
 275 00f8 1370     		strb	r3, [r2]
  97:E:/study/New_Study/My_FOC/VOFA\Master_PC.c **** 						}
 276              		.loc 1 97 9 is_stmt 1 view .LVU90
  97:E:/study/New_Study/My_FOC/VOFA\Master_PC.c **** 						}
 277              		.loc 1 97 19 is_stmt 0 view .LVU91
 278 00fa 284B     		ldr	r3, .L34+48
 279 00fc 0122     		movs	r2, #1
 280 00fe 1A70     		strb	r2, [r3]
 281 0100 BBE7     		b	.L4
 282              	.L27:
 109:E:/study/New_Study/My_FOC/VOFA\Master_PC.c **** 				}
 283              		.loc 1 109 7 is_stmt 1 view .LVU92
ARM GAS  C:\Users\86390\AppData\Local\Temp\ccSIReWa.s 			page 10


 109:E:/study/New_Study/My_FOC/VOFA\Master_PC.c **** 				}
 284              		.loc 1 109 24 is_stmt 0 view .LVU93
 285 0102 214B     		ldr	r3, .L34+28
 286 0104 0122     		movs	r2, #1
 287 0106 1A70     		strb	r2, [r3]
 288 0108 7FE7     		b	.L1
 289              	.L28:
 111:E:/study/New_Study/My_FOC/VOFA\Master_PC.c **** 				{
 290              		.loc 1 111 44 discriminator 1 view .LVU94
 291 010a 194A     		ldr	r2, .L34+4
 292 010c 1278     		ldrb	r2, [r2]	@ zero_extendqisi2
 111:E:/study/New_Study/My_FOC/VOFA\Master_PC.c **** 				{
 293              		.loc 1 111 34 discriminator 1 view .LVU95
 294 010e 462A     		cmp	r2, #70
 295 0110 BCD1     		bne	.L12
 113:E:/study/New_Study/My_FOC/VOFA\Master_PC.c **** 				}
 296              		.loc 1 113 7 is_stmt 1 view .LVU96
 113:E:/study/New_Study/My_FOC/VOFA\Master_PC.c **** 				}
 297              		.loc 1 113 24 is_stmt 0 view .LVU97
 298 0112 1D4B     		ldr	r3, .L34+28
 299 0114 0222     		movs	r2, #2
 300 0116 1A70     		strb	r2, [r3]
 301 0118 77E7     		b	.L1
 302              	.L29:
 115:E:/study/New_Study/My_FOC/VOFA\Master_PC.c **** 				{
 303              		.loc 1 115 44 discriminator 1 view .LVU98
 304 011a 154A     		ldr	r2, .L34+4
 305 011c 1278     		ldrb	r2, [r2]	@ zero_extendqisi2
 115:E:/study/New_Study/My_FOC/VOFA\Master_PC.c **** 				{
 306              		.loc 1 115 34 discriminator 1 view .LVU99
 307 011e 6C2A     		cmp	r2, #108
 308 0120 B6D1     		bne	.L13
 117:E:/study/New_Study/My_FOC/VOFA\Master_PC.c **** 				}
 309              		.loc 1 117 7 is_stmt 1 view .LVU100
 117:E:/study/New_Study/My_FOC/VOFA\Master_PC.c **** 				}
 310              		.loc 1 117 24 is_stmt 0 view .LVU101
 311 0122 194B     		ldr	r3, .L34+28
 312 0124 0322     		movs	r2, #3
 313 0126 1A70     		strb	r2, [r3]
 314 0128 6FE7     		b	.L1
 315              	.L30:
 119:E:/study/New_Study/My_FOC/VOFA\Master_PC.c **** 				{
 316              		.loc 1 119 44 discriminator 1 view .LVU102
 317 012a 114A     		ldr	r2, .L34+4
 318 012c 1278     		ldrb	r2, [r2]	@ zero_extendqisi2
 119:E:/study/New_Study/My_FOC/VOFA\Master_PC.c **** 				{
 319              		.loc 1 119 34 discriminator 1 view .LVU103
 320 012e 612A     		cmp	r2, #97
 321 0130 B0D1     		bne	.L14
 121:E:/study/New_Study/My_FOC/VOFA\Master_PC.c **** 				}
 322              		.loc 1 121 7 is_stmt 1 view .LVU104
 121:E:/study/New_Study/My_FOC/VOFA\Master_PC.c **** 				}
 323              		.loc 1 121 24 is_stmt 0 view .LVU105
 324 0132 154B     		ldr	r3, .L34+28
 325 0134 0422     		movs	r2, #4
 326 0136 1A70     		strb	r2, [r3]
 327 0138 67E7     		b	.L1
ARM GAS  C:\Users\86390\AppData\Local\Temp\ccSIReWa.s 			page 11


 328              	.L31:
 123:E:/study/New_Study/My_FOC/VOFA\Master_PC.c **** 				{
 329              		.loc 1 123 44 discriminator 1 view .LVU106
 330 013a 0D4A     		ldr	r2, .L34+4
 331 013c 1278     		ldrb	r2, [r2]	@ zero_extendqisi2
 123:E:/study/New_Study/My_FOC/VOFA\Master_PC.c **** 				{
 332              		.loc 1 123 34 discriminator 1 view .LVU107
 333 013e 672A     		cmp	r2, #103
 334 0140 AAD1     		bne	.L15
 125:E:/study/New_Study/My_FOC/VOFA\Master_PC.c **** 				}
 335              		.loc 1 125 7 is_stmt 1 view .LVU108
 125:E:/study/New_Study/My_FOC/VOFA\Master_PC.c **** 				}
 336              		.loc 1 125 24 is_stmt 0 view .LVU109
 337 0142 114B     		ldr	r3, .L34+28
 338 0144 0522     		movs	r2, #5
 339 0146 1A70     		strb	r2, [r3]
 340 0148 5FE7     		b	.L1
 341              	.L32:
 127:E:/study/New_Study/My_FOC/VOFA\Master_PC.c **** 				{
 342              		.loc 1 127 44 discriminator 1 view .LVU110
 343 014a 094A     		ldr	r2, .L34+4
 344 014c 1278     		ldrb	r2, [r2]	@ zero_extendqisi2
 127:E:/study/New_Study/My_FOC/VOFA\Master_PC.c **** 				{
 345              		.loc 1 127 34 discriminator 1 view .LVU111
 346 014e 3D2A     		cmp	r2, #61
 347 0150 A4D1     		bne	.L16
 129:E:/study/New_Study/My_FOC/VOFA\Master_PC.c **** 				}
 348              		.loc 1 129 7 is_stmt 1 view .LVU112
 129:E:/study/New_Study/My_FOC/VOFA\Master_PC.c **** 				}
 349              		.loc 1 129 24 is_stmt 0 view .LVU113
 350 0152 0D4B     		ldr	r3, .L34+28
 351 0154 0622     		movs	r2, #6
 352 0156 1A70     		strb	r2, [r3]
 353 0158 57E7     		b	.L1
 354              	.L33:
 135:E:/study/New_Study/My_FOC/VOFA\Master_PC.c **** 								On_or_off_RxFlag=1;				/* Ëé∑ÂèñÊ†áÂøó‰ΩçÁΩÆ1 */
 355              		.loc 1 135 9 is_stmt 1 view .LVU114
 135:E:/study/New_Study/My_FOC/VOFA\Master_PC.c **** 								On_or_off_RxFlag=1;				/* Ëé∑ÂèñÊ†áÂøó‰ΩçÁΩÆ1 */
 356              		.loc 1 135 26 is_stmt 0 view .LVU115
 357 015a 0023     		movs	r3, #0
 358 015c 0A4A     		ldr	r2, .L34+28
 359 015e 1370     		strb	r3, [r2]
 136:E:/study/New_Study/My_FOC/VOFA\Master_PC.c **** 								On_or_off_pRxPacket=0;
 360              		.loc 1 136 9 is_stmt 1 view .LVU116
 136:E:/study/New_Study/My_FOC/VOFA\Master_PC.c **** 								On_or_off_pRxPacket=0;
 361              		.loc 1 136 25 is_stmt 0 view .LVU117
 362 0160 0F4A     		ldr	r2, .L34+52
 363 0162 0121     		movs	r1, #1
 364 0164 1170     		strb	r1, [r2]
 137:E:/study/New_Study/My_FOC/VOFA\Master_PC.c **** 						}
 365              		.loc 1 137 9 is_stmt 1 view .LVU118
 137:E:/study/New_Study/My_FOC/VOFA\Master_PC.c **** 						}
 366              		.loc 1 137 28 is_stmt 0 view .LVU119
 367 0166 094A     		ldr	r2, .L34+32
 368 0168 1370     		strb	r3, [r2]
 369 016a 4EE7     		b	.L1
 370              	.L35:
ARM GAS  C:\Users\86390\AppData\Local\Temp\ccSIReWa.s 			page 12


 371              		.align	2
 372              	.L34:
 373 016c 00380140 		.word	1073821696
 374 0170 00000000 		.word	.LANCHOR0
 375 0174 00000000 		.word	huart1
 376 0178 00000000 		.word	.LANCHOR1
 377 017c 00000000 		.word	.LANCHOR5
 378 0180 00000000 		.word	.LANCHOR7
 379 0184 00000000 		.word	.LANCHOR2
 380 0188 00000000 		.word	.LANCHOR8
 381 018c 00000000 		.word	.LANCHOR10
 382 0190 00000000 		.word	.LANCHOR11
 383 0194 00000000 		.word	.LANCHOR3
 384 0198 00000000 		.word	.LANCHOR4
 385 019c 00000000 		.word	.LANCHOR6
 386 01a0 00000000 		.word	.LANCHOR9
 387              	.LBE3:
 388              		.cfi_endproc
 389              	.LFE65:
 391              		.section	.text.Get_vofa_PID_Rxflag,"ax",%progbits
 392              		.align	1
 393              		.global	Get_vofa_PID_Rxflag
 394              		.syntax unified
 395              		.thumb
 396              		.thumb_func
 398              	Get_vofa_PID_Rxflag:
 399              	.LFB66:
 146:E:/study/New_Study/My_FOC/VOFA\Master_PC.c **** 
 147:E:/study/New_Study/My_FOC/VOFA\Master_PC.c **** 
 148:E:/study/New_Study/My_FOC/VOFA\Master_PC.c **** /* Ëé∑ÂèñPIDÊï∞ÊçÆÊé•Êî∂ÊàêÂäüÊ†áÂøó‰Ωç */
 149:E:/study/New_Study/My_FOC/VOFA\Master_PC.c **** uint8_t Get_vofa_PID_Rxflag(void)
 150:E:/study/New_Study/My_FOC/VOFA\Master_PC.c **** {
 400              		.loc 1 150 1 is_stmt 1 view -0
 401              		.cfi_startproc
 402              		@ args = 0, pretend = 0, frame = 0
 403              		@ frame_needed = 0, uses_anonymous_args = 0
 404              		@ link register save eliminated.
 151:E:/study/New_Study/My_FOC/VOFA\Master_PC.c **** 		if(PID_RxFlag==1)		/* ÊàêÂäüÊó∂ */
 405              		.loc 1 151 3 view .LVU121
 406              		.loc 1 151 16 is_stmt 0 view .LVU122
 407 0000 044B     		ldr	r3, .L40
 408 0002 1878     		ldrb	r0, [r3]	@ zero_extendqisi2
 409              		.loc 1 151 5 view .LVU123
 410 0004 0128     		cmp	r0, #1
 411 0006 01D0     		beq	.L39
 152:E:/study/New_Study/My_FOC/VOFA\Master_PC.c **** 		{
 153:E:/study/New_Study/My_FOC/VOFA\Master_PC.c **** 				PID_RxFlag=0;		/* Ê∏ÖÈõ∂Â§ÑÁêÜ */
 154:E:/study/New_Study/My_FOC/VOFA\Master_PC.c **** 				return 1;
 155:E:/study/New_Study/My_FOC/VOFA\Master_PC.c **** 		}
 156:E:/study/New_Study/My_FOC/VOFA\Master_PC.c **** 		else return 0;
 412              		.loc 1 156 15 view .LVU124
 413 0008 0020     		movs	r0, #0
 157:E:/study/New_Study/My_FOC/VOFA\Master_PC.c **** }
 414              		.loc 1 157 1 view .LVU125
 415 000a 7047     		bx	lr
 416              	.L39:
 153:E:/study/New_Study/My_FOC/VOFA\Master_PC.c **** 				return 1;
ARM GAS  C:\Users\86390\AppData\Local\Temp\ccSIReWa.s 			page 13


 417              		.loc 1 153 5 is_stmt 1 view .LVU126
 153:E:/study/New_Study/My_FOC/VOFA\Master_PC.c **** 				return 1;
 418              		.loc 1 153 15 is_stmt 0 view .LVU127
 419 000c 0022     		movs	r2, #0
 420 000e 1A70     		strb	r2, [r3]
 154:E:/study/New_Study/My_FOC/VOFA\Master_PC.c **** 		}
 421              		.loc 1 154 5 is_stmt 1 view .LVU128
 154:E:/study/New_Study/My_FOC/VOFA\Master_PC.c **** 		}
 422              		.loc 1 154 12 is_stmt 0 view .LVU129
 423 0010 7047     		bx	lr
 424              	.L41:
 425 0012 00BF     		.align	2
 426              	.L40:
 427 0014 00000000 		.word	.LANCHOR6
 428              		.cfi_endproc
 429              	.LFE66:
 431              		.section	.text.Get_On_or_off_Rxflag,"ax",%progbits
 432              		.align	1
 433              		.global	Get_On_or_off_Rxflag
 434              		.syntax unified
 435              		.thumb
 436              		.thumb_func
 438              	Get_On_or_off_Rxflag:
 439              	.LFB67:
 158:E:/study/New_Study/My_FOC/VOFA\Master_PC.c **** 
 159:E:/study/New_Study/My_FOC/VOFA\Master_PC.c **** /* Ëé∑ÂèñÂêØÂä®ÂÅúÊ≠¢‰ΩçÊàêÂäüÊ†áÂøó‰Ωç */
 160:E:/study/New_Study/My_FOC/VOFA\Master_PC.c **** uint8_t Get_On_or_off_Rxflag(void)
 161:E:/study/New_Study/My_FOC/VOFA\Master_PC.c **** {
 440              		.loc 1 161 1 is_stmt 1 view -0
 441              		.cfi_startproc
 442              		@ args = 0, pretend = 0, frame = 0
 443              		@ frame_needed = 0, uses_anonymous_args = 0
 444              		@ link register save eliminated.
 162:E:/study/New_Study/My_FOC/VOFA\Master_PC.c **** 		if(On_or_off_RxFlag==1)
 445              		.loc 1 162 3 view .LVU131
 446              		.loc 1 162 22 is_stmt 0 view .LVU132
 447 0000 044B     		ldr	r3, .L46
 448 0002 1878     		ldrb	r0, [r3]	@ zero_extendqisi2
 449              		.loc 1 162 5 view .LVU133
 450 0004 0128     		cmp	r0, #1
 451 0006 01D0     		beq	.L45
 163:E:/study/New_Study/My_FOC/VOFA\Master_PC.c **** 		{
 164:E:/study/New_Study/My_FOC/VOFA\Master_PC.c **** 				On_or_off_RxFlag=0;			/* Ê∏ÖÈõ∂Â§ÑÁêÜ */
 165:E:/study/New_Study/My_FOC/VOFA\Master_PC.c **** 				return 1;
 166:E:/study/New_Study/My_FOC/VOFA\Master_PC.c **** 		}
 167:E:/study/New_Study/My_FOC/VOFA\Master_PC.c **** 		else return 0;
 452              		.loc 1 167 15 view .LVU134
 453 0008 0020     		movs	r0, #0
 168:E:/study/New_Study/My_FOC/VOFA\Master_PC.c **** }
 454              		.loc 1 168 1 view .LVU135
 455 000a 7047     		bx	lr
 456              	.L45:
 164:E:/study/New_Study/My_FOC/VOFA\Master_PC.c **** 				return 1;
 457              		.loc 1 164 5 is_stmt 1 view .LVU136
 164:E:/study/New_Study/My_FOC/VOFA\Master_PC.c **** 				return 1;
 458              		.loc 1 164 21 is_stmt 0 view .LVU137
 459 000c 0022     		movs	r2, #0
ARM GAS  C:\Users\86390\AppData\Local\Temp\ccSIReWa.s 			page 14


 460 000e 1A70     		strb	r2, [r3]
 165:E:/study/New_Study/My_FOC/VOFA\Master_PC.c **** 		}
 461              		.loc 1 165 5 is_stmt 1 view .LVU138
 165:E:/study/New_Study/My_FOC/VOFA\Master_PC.c **** 		}
 462              		.loc 1 165 12 is_stmt 0 view .LVU139
 463 0010 7047     		bx	lr
 464              	.L47:
 465 0012 00BF     		.align	2
 466              	.L46:
 467 0014 00000000 		.word	.LANCHOR9
 468              		.cfi_endproc
 469              	.LFE67:
 471              		.section	.text.Get_id_Flag_1,"ax",%progbits
 472              		.align	1
 473              		.global	Get_id_Flag_1
 474              		.syntax unified
 475              		.thumb
 476              		.thumb_func
 478              	Get_id_Flag_1:
 479              	.LFB68:
 169:E:/study/New_Study/My_FOC/VOFA\Master_PC.c **** 
 170:E:/study/New_Study/My_FOC/VOFA\Master_PC.c **** 
 171:E:/study/New_Study/My_FOC/VOFA\Master_PC.c **** /* Ëé∑ÂèñÊé•Êî∂Ê†áÂøó1 */
 172:E:/study/New_Study/My_FOC/VOFA\Master_PC.c **** uint8_t Get_id_Flag_1(void)
 173:E:/study/New_Study/My_FOC/VOFA\Master_PC.c **** {
 480              		.loc 1 173 1 is_stmt 1 view -0
 481              		.cfi_startproc
 482              		@ args = 0, pretend = 0, frame = 0
 483              		@ frame_needed = 0, uses_anonymous_args = 0
 484              		@ link register save eliminated.
 174:E:/study/New_Study/My_FOC/VOFA\Master_PC.c **** 		uint8_t id_temp;
 485              		.loc 1 174 3 view .LVU141
 175:E:/study/New_Study/My_FOC/VOFA\Master_PC.c **** 		id_temp=id_Flag_1;
 486              		.loc 1 175 3 view .LVU142
 487              		.loc 1 175 10 is_stmt 0 view .LVU143
 488 0000 024B     		ldr	r3, .L49
 489 0002 1878     		ldrb	r0, [r3]	@ zero_extendqisi2
 490              	.LVL5:
 176:E:/study/New_Study/My_FOC/VOFA\Master_PC.c **** 		id_Flag_1=0;			/* Ê∏ÖÈõ∂ */
 491              		.loc 1 176 3 is_stmt 1 view .LVU144
 492              		.loc 1 176 12 is_stmt 0 view .LVU145
 493 0004 0022     		movs	r2, #0
 494 0006 1A70     		strb	r2, [r3]
 177:E:/study/New_Study/My_FOC/VOFA\Master_PC.c **** 		return id_temp;
 495              		.loc 1 177 3 is_stmt 1 view .LVU146
 178:E:/study/New_Study/My_FOC/VOFA\Master_PC.c **** }
 496              		.loc 1 178 1 is_stmt 0 view .LVU147
 497 0008 7047     		bx	lr
 498              	.L50:
 499 000a 00BF     		.align	2
 500              	.L49:
 501 000c 00000000 		.word	.LANCHOR2
 502              		.cfi_endproc
 503              	.LFE68:
 505              		.section	.text.Get_id_Flag_2,"ax",%progbits
 506              		.align	1
 507              		.global	Get_id_Flag_2
ARM GAS  C:\Users\86390\AppData\Local\Temp\ccSIReWa.s 			page 15


 508              		.syntax unified
 509              		.thumb
 510              		.thumb_func
 512              	Get_id_Flag_2:
 513              	.LFB69:
 179:E:/study/New_Study/My_FOC/VOFA\Master_PC.c **** 
 180:E:/study/New_Study/My_FOC/VOFA\Master_PC.c **** /* Ëé∑ÂèñÊé•Êî∂Ê†áÂøó2 */
 181:E:/study/New_Study/My_FOC/VOFA\Master_PC.c **** uint8_t Get_id_Flag_2(void)
 182:E:/study/New_Study/My_FOC/VOFA\Master_PC.c **** {
 514              		.loc 1 182 1 is_stmt 1 view -0
 515              		.cfi_startproc
 516              		@ args = 0, pretend = 0, frame = 0
 517              		@ frame_needed = 0, uses_anonymous_args = 0
 518              		@ link register save eliminated.
 183:E:/study/New_Study/My_FOC/VOFA\Master_PC.c **** 		uint8_t id_temp;
 519              		.loc 1 183 3 view .LVU149
 184:E:/study/New_Study/My_FOC/VOFA\Master_PC.c **** 		id_temp=id_Flag_2;
 520              		.loc 1 184 3 view .LVU150
 521              	.LVL6:
 185:E:/study/New_Study/My_FOC/VOFA\Master_PC.c **** 		id_Flag_1=0;			/* Ê∏ÖÈõ∂ */
 522              		.loc 1 185 3 view .LVU151
 523              		.loc 1 185 12 is_stmt 0 view .LVU152
 524 0000 024B     		ldr	r3, .L52
 525 0002 0022     		movs	r2, #0
 526 0004 1A70     		strb	r2, [r3]
 186:E:/study/New_Study/My_FOC/VOFA\Master_PC.c **** 		return id_temp;
 527              		.loc 1 186 3 is_stmt 1 view .LVU153
 187:E:/study/New_Study/My_FOC/VOFA\Master_PC.c **** }
 528              		.loc 1 187 1 is_stmt 0 view .LVU154
 529 0006 024B     		ldr	r3, .L52+4
 530 0008 1878     		ldrb	r0, [r3]	@ zero_extendqisi2
 531 000a 7047     		bx	lr
 532              	.L53:
 533              		.align	2
 534              	.L52:
 535 000c 00000000 		.word	.LANCHOR2
 536 0010 00000000 		.word	.LANCHOR3
 537              		.cfi_endproc
 538              	.LFE69:
 540              		.global	__aeabi_ui2f
 541              		.global	__aeabi_fdiv
 542              		.section	.text.Pow_invert,"ax",%progbits
 543              		.align	1
 544              		.global	Pow_invert
 545              		.syntax unified
 546              		.thumb
 547              		.thumb_func
 549              	Pow_invert:
 550              	.LVL7:
 551              	.LFB70:
 188:E:/study/New_Study/My_FOC/VOFA\Master_PC.c **** 
 189:E:/study/New_Study/My_FOC/VOFA\Master_PC.c **** float Pow_invert(uint8_t X,uint8_t n) /* xÈô§‰ª•nÊ¨°10 */
 190:E:/study/New_Study/My_FOC/VOFA\Master_PC.c **** {
 552              		.loc 1 190 1 is_stmt 1 view -0
 553              		.cfi_startproc
 554              		@ args = 0, pretend = 0, frame = 0
 555              		@ frame_needed = 0, uses_anonymous_args = 0
ARM GAS  C:\Users\86390\AppData\Local\Temp\ccSIReWa.s 			page 16


 556              		.loc 1 190 1 is_stmt 0 view .LVU156
 557 0000 38B5     		push	{r3, r4, r5, lr}
 558              	.LCFI1:
 559              		.cfi_def_cfa_offset 16
 560              		.cfi_offset 3, -16
 561              		.cfi_offset 4, -12
 562              		.cfi_offset 5, -8
 563              		.cfi_offset 14, -4
 564 0002 0D46     		mov	r5, r1
 191:E:/study/New_Study/My_FOC/VOFA\Master_PC.c ****   float result=X;
 565              		.loc 1 191 3 is_stmt 1 view .LVU157
 566              		.loc 1 191 9 is_stmt 0 view .LVU158
 567 0004 FFF7FEFF 		bl	__aeabi_ui2f
 568              	.LVL8:
 192:E:/study/New_Study/My_FOC/VOFA\Master_PC.c **** 	while(n--)
 569              		.loc 1 192 2 is_stmt 1 view .LVU159
 570              		.loc 1 192 7 is_stmt 0 view .LVU160
 571 0008 03E0     		b	.L55
 572              	.LVL9:
 573              	.L56:
 193:E:/study/New_Study/My_FOC/VOFA\Master_PC.c **** 	{
 194:E:/study/New_Study/My_FOC/VOFA\Master_PC.c **** 		result/=10;
 574              		.loc 1 194 3 is_stmt 1 view .LVU161
 575              		.loc 1 194 9 is_stmt 0 view .LVU162
 576 000a 0449     		ldr	r1, .L58
 577 000c FFF7FEFF 		bl	__aeabi_fdiv
 578              	.LVL10:
 192:E:/study/New_Study/My_FOC/VOFA\Master_PC.c **** 	while(n--)
 579              		.loc 1 192 9 view .LVU163
 580 0010 2546     		mov	r5, r4
 581              	.LVL11:
 582              	.L55:
 192:E:/study/New_Study/My_FOC/VOFA\Master_PC.c **** 	while(n--)
 583              		.loc 1 192 7 is_stmt 1 view .LVU164
 192:E:/study/New_Study/My_FOC/VOFA\Master_PC.c **** 	while(n--)
 584              		.loc 1 192 9 is_stmt 0 view .LVU165
 585 0012 6B1E     		subs	r3, r5, #1
 586 0014 DCB2     		uxtb	r4, r3
 587              	.LVL12:
 192:E:/study/New_Study/My_FOC/VOFA\Master_PC.c **** 	while(n--)
 588              		.loc 1 192 7 view .LVU166
 589 0016 002D     		cmp	r5, #0
 590 0018 F7D1     		bne	.L56
 195:E:/study/New_Study/My_FOC/VOFA\Master_PC.c **** 	}
 196:E:/study/New_Study/My_FOC/VOFA\Master_PC.c **** 	return result;
 591              		.loc 1 196 2 is_stmt 1 view .LVU167
 197:E:/study/New_Study/My_FOC/VOFA\Master_PC.c **** }
 592              		.loc 1 197 1 is_stmt 0 view .LVU168
 593 001a 38BD     		pop	{r3, r4, r5, pc}
 594              	.LVL13:
 595              	.L59:
 596              		.loc 1 197 1 view .LVU169
 597              		.align	2
 598              	.L58:
 599 001c 00002041 		.word	1092616192
 600              		.cfi_endproc
 601              	.LFE70:
ARM GAS  C:\Users\86390\AppData\Local\Temp\ccSIReWa.s 			page 17


 603              		.global	__aeabi_fmul
 604              		.global	__aeabi_i2f
 605              		.global	__aeabi_fadd
 606              		.global	__aeabi_fsub
 607              		.section	.text.RxPacket_Data_Handle,"ax",%progbits
 608              		.align	1
 609              		.global	RxPacket_Data_Handle
 610              		.syntax unified
 611              		.thumb
 612              		.thumb_func
 614              	RxPacket_Data_Handle:
 615              	.LFB71:
 198:E:/study/New_Study/My_FOC/VOFA\Master_PC.c **** 
 199:E:/study/New_Study/My_FOC/VOFA\Master_PC.c **** //uint8_t Get_Vofa_RxData[5]={0x31,0x32,0x2E,0x31,0x33};//ÂèØ‰ª•ÁªôÊï∞ÊçÆÂåÖÁõ¥Êé•ËµãÂÄºÁõ¥Êé•Ë∞ÉÁî
 200:E:/study/New_Study/My_FOC/VOFA\Master_PC.c **** //Data_BitNum = 5//Âà´ÂøòËÆ∞Êï∞ÊçÆÁöÑÈïøÂ∫¶‰πüË¶ÅËÆæÁΩÆ
 201:E:/study/New_Study/My_FOC/VOFA\Master_PC.c **** //ÁÑ∂ÂêéÁõ¥Êé•Âú®‰∏ªÁ®ãÂ∫èÂ∞±Êîæ  Printf("%f\n",RxPacket_Data_Handle());  Delay_ms(1000);Â∞±ok‰∫Ü
 202:E:/study/New_Study/My_FOC/VOFA\Master_PC.c **** 
 203:E:/study/New_Study/My_FOC/VOFA\Master_PC.c **** 
 204:E:/study/New_Study/My_FOC/VOFA\Master_PC.c **** /* Êï∞ÊçÆÂåÖÊç¢ÁÆóÂ§ÑÁêÜ */
 205:E:/study/New_Study/My_FOC/VOFA\Master_PC.c **** float RxPacket_Data_Handle(void)
 206:E:/study/New_Study/My_FOC/VOFA\Master_PC.c **** {
 616              		.loc 1 206 1 is_stmt 1 view -0
 617              		.cfi_startproc
 618              		@ args = 0, pretend = 0, frame = 0
 619              		@ frame_needed = 0, uses_anonymous_args = 0
 620 0000 2DE9F843 		push	{r3, r4, r5, r6, r7, r8, r9, lr}
 621              	.LCFI2:
 622              		.cfi_def_cfa_offset 32
 623              		.cfi_offset 3, -32
 624              		.cfi_offset 4, -28
 625              		.cfi_offset 5, -24
 626              		.cfi_offset 6, -20
 627              		.cfi_offset 7, -16
 628              		.cfi_offset 8, -12
 629              		.cfi_offset 9, -8
 630              		.cfi_offset 14, -4
 207:E:/study/New_Study/My_FOC/VOFA\Master_PC.c ****   float Data=0.0;
 631              		.loc 1 207 3 view .LVU171
 632              	.LVL14:
 208:E:/study/New_Study/My_FOC/VOFA\Master_PC.c ****   uint8_t dot_Flag=0;	/* Â∞èÊï∞ÁÇπÊ†áÂøó‰ΩçÔºåËÉΩÂå∫ÂàÜÂ∞èÊï∞ÁÇπÂêéÊàñÂ∞èÊï∞ÁÇπÂâç 0‰∏∫Â∞èÊï∞ÁÇπÂâç
 633              		.loc 1 208 3 view .LVU172
 209:E:/study/New_Study/My_FOC/VOFA\Master_PC.c ****   uint8_t dot_after_num=1;	/* Â∞èÊï∞ÁÇπÂêéÁöÑÁ¨¨Âá†‰Ωç */
 634              		.loc 1 209 3 view .LVU173
 210:E:/study/New_Study/My_FOC/VOFA\Master_PC.c ****   int8_t minus_Flag=1;				/* Ë¥üÂè∑Ê†áÂøó‰Ωç -1‰∏∫ÊòØË¥üÂè∑ 1‰∏∫Ê≠£Âè∑ */
 635              		.loc 1 210 3 view .LVU174
 211:E:/study/New_Study/My_FOC/VOFA\Master_PC.c ****   for(uint8_t i=0;i<Data_BitNum;i++)
 636              		.loc 1 211 3 view .LVU175
 637              	.LBB4:
 638              		.loc 1 211 7 view .LVU176
 639              		.loc 1 211 15 is_stmt 0 view .LVU177
 640 0004 0024     		movs	r4, #0
 641              	.LBE4:
 210:E:/study/New_Study/My_FOC/VOFA\Master_PC.c ****   int8_t minus_Flag=1;				/* Ë¥üÂè∑Ê†áÂøó‰Ωç -1‰∏∫ÊòØË¥üÂè∑ 1‰∏∫Ê≠£Âè∑ */
 642              		.loc 1 210 10 view .LVU178
 643 0006 4FF00109 		mov	r9, #1
 209:E:/study/New_Study/My_FOC/VOFA\Master_PC.c ****   uint8_t dot_after_num=1;	/* Â∞èÊï∞ÁÇπÂêéÁöÑÁ¨¨Âá†‰Ωç */
 644              		.loc 1 209 11 view .LVU179
ARM GAS  C:\Users\86390\AppData\Local\Temp\ccSIReWa.s 			page 18


 645 000a 4F46     		mov	r7, r9
 208:E:/study/New_Study/My_FOC/VOFA\Master_PC.c ****   uint8_t dot_after_num=1;	/* Â∞èÊï∞ÁÇπÂêéÁöÑÁ¨¨Âá†‰Ωç */
 646              		.loc 1 208 11 view .LVU180
 647 000c A046     		mov	r8, r4
 207:E:/study/New_Study/My_FOC/VOFA\Master_PC.c ****   uint8_t dot_Flag=0;	/* Â∞èÊï∞ÁÇπÊ†áÂøó‰ΩçÔºåËÉΩÂå∫ÂàÜÂ∞èÊï∞ÁÇπÂêéÊàñÂ∞èÊï∞ÁÇπÂâç 0‰∏∫Â∞èÊï∞ÁÇπÂâç
 648              		.loc 1 207 9 view .LVU181
 649 000e 0026     		movs	r6, #0
 650              	.LBB5:
 651              		.loc 1 211 3 view .LVU182
 652 0010 0DE0     		b	.L61
 653              	.LVL15:
 654              	.L63:
 212:E:/study/New_Study/My_FOC/VOFA\Master_PC.c ****   {
 213:E:/study/New_Study/My_FOC/VOFA\Master_PC.c ****     if(Get_Vofa_RxData[i]==0x2D)		/* Â¶ÇÊûúÁ¨¨‰∏Ä‰Ωç‰∏∫Ë¥üÂè∑ */
 214:E:/study/New_Study/My_FOC/VOFA\Master_PC.c ****     {
 215:E:/study/New_Study/My_FOC/VOFA\Master_PC.c ****       minus_Flag=-1;
 216:E:/study/New_Study/My_FOC/VOFA\Master_PC.c ****       continue;		/* Ë∑≥ËøáÊú¨Ê¨°Âæ™ÁéØ */ 
 217:E:/study/New_Study/My_FOC/VOFA\Master_PC.c ****     }
 218:E:/study/New_Study/My_FOC/VOFA\Master_PC.c ****     if(dot_Flag==0)
 219:E:/study/New_Study/My_FOC/VOFA\Master_PC.c ****     {
 220:E:/study/New_Study/My_FOC/VOFA\Master_PC.c ****       if(Get_Vofa_RxData[i]==0x2E) /* Â¶ÇÊûúËØÜÂà´Âà∞Â∞èÊï∞ÁÇπÔºåÂàôÂ∞Üdot_FlagÁΩÆ1 */
 221:E:/study/New_Study/My_FOC/VOFA\Master_PC.c ****       {
 222:E:/study/New_Study/My_FOC/VOFA\Master_PC.c ****         dot_Flag=1;
 223:E:/study/New_Study/My_FOC/VOFA\Master_PC.c ****       }
 224:E:/study/New_Study/My_FOC/VOFA\Master_PC.c ****       else  /* ËøòÊ≤°ÈÅáÂà∞Â∞èÊï∞ÁÇπÂâçÁöÑËøêÁÆó */
 225:E:/study/New_Study/My_FOC/VOFA\Master_PC.c ****       {
 226:E:/study/New_Study/My_FOC/VOFA\Master_PC.c ****         Data = Data*10 + Get_Vofa_RxData[i]-48;
 227:E:/study/New_Study/My_FOC/VOFA\Master_PC.c ****       }
 228:E:/study/New_Study/My_FOC/VOFA\Master_PC.c ****     }
 229:E:/study/New_Study/My_FOC/VOFA\Master_PC.c ****     else  /* ÈÅáÂà∞Â∞èÊï∞ÁÇπÂêéÁöÑËøêÁÆó */
 230:E:/study/New_Study/My_FOC/VOFA\Master_PC.c ****     {
 231:E:/study/New_Study/My_FOC/VOFA\Master_PC.c ****       Data = Data + Pow_invert(Get_Vofa_RxData[i]-48,dot_after_num);
 655              		.loc 1 231 7 is_stmt 1 view .LVU183
 656              		.loc 1 231 21 is_stmt 0 view .LVU184
 657 0012 303D     		subs	r5, r5, #48
 658 0014 3946     		mov	r1, r7
 659 0016 E8B2     		uxtb	r0, r5
 660 0018 FFF7FEFF 		bl	Pow_invert
 661              	.LVL16:
 662 001c 0146     		mov	r1, r0
 663              		.loc 1 231 12 view .LVU185
 664 001e 3046     		mov	r0, r6
 665 0020 FFF7FEFF 		bl	__aeabi_fadd
 666              	.LVL17:
 667 0024 0646     		mov	r6, r0
 668              	.LVL18:
 232:E:/study/New_Study/My_FOC/VOFA\Master_PC.c ****       dot_after_num++;
 669              		.loc 1 232 7 is_stmt 1 view .LVU186
 670              		.loc 1 232 20 is_stmt 0 view .LVU187
 671 0026 0137     		adds	r7, r7, #1
 672              	.LVL19:
 673              		.loc 1 232 20 view .LVU188
 674 0028 FFB2     		uxtb	r7, r7
 675              	.LVL20:
 676              	.L62:
 211:E:/study/New_Study/My_FOC/VOFA\Master_PC.c ****   {
 677              		.loc 1 211 33 is_stmt 1 discriminator 2 view .LVU189
ARM GAS  C:\Users\86390\AppData\Local\Temp\ccSIReWa.s 			page 19


 211:E:/study/New_Study/My_FOC/VOFA\Master_PC.c ****   {
 678              		.loc 1 211 34 is_stmt 0 discriminator 2 view .LVU190
 679 002a 0134     		adds	r4, r4, #1
 680              	.LVL21:
 211:E:/study/New_Study/My_FOC/VOFA\Master_PC.c ****   {
 681              		.loc 1 211 34 discriminator 2 view .LVU191
 682 002c E4B2     		uxtb	r4, r4
 683              	.LVL22:
 684              	.L61:
 211:E:/study/New_Study/My_FOC/VOFA\Master_PC.c ****   {
 685              		.loc 1 211 19 is_stmt 1 discriminator 1 view .LVU192
 211:E:/study/New_Study/My_FOC/VOFA\Master_PC.c ****   {
 686              		.loc 1 211 20 is_stmt 0 discriminator 1 view .LVU193
 687 002e 154B     		ldr	r3, .L69
 688 0030 1B78     		ldrb	r3, [r3]	@ zero_extendqisi2
 211:E:/study/New_Study/My_FOC/VOFA\Master_PC.c ****   {
 689              		.loc 1 211 3 discriminator 1 view .LVU194
 690 0032 A342     		cmp	r3, r4
 691 0034 1ED9     		bls	.L68
 213:E:/study/New_Study/My_FOC/VOFA\Master_PC.c ****     {
 692              		.loc 1 213 5 is_stmt 1 view .LVU195
 213:E:/study/New_Study/My_FOC/VOFA\Master_PC.c ****     {
 693              		.loc 1 213 23 is_stmt 0 view .LVU196
 694 0036 144B     		ldr	r3, .L69+4
 695 0038 1D5D     		ldrb	r5, [r3, r4]	@ zero_extendqisi2
 213:E:/study/New_Study/My_FOC/VOFA\Master_PC.c ****     {
 696              		.loc 1 213 7 view .LVU197
 697 003a 2D2D     		cmp	r5, #45
 698 003c 14D0     		beq	.L65
 218:E:/study/New_Study/My_FOC/VOFA\Master_PC.c ****     {
 699              		.loc 1 218 5 is_stmt 1 view .LVU198
 218:E:/study/New_Study/My_FOC/VOFA\Master_PC.c ****     {
 700              		.loc 1 218 7 is_stmt 0 view .LVU199
 701 003e B8F1000F 		cmp	r8, #0
 702 0042 E6D1     		bne	.L63
 220:E:/study/New_Study/My_FOC/VOFA\Master_PC.c ****       {
 703              		.loc 1 220 7 is_stmt 1 view .LVU200
 220:E:/study/New_Study/My_FOC/VOFA\Master_PC.c ****       {
 704              		.loc 1 220 9 is_stmt 0 view .LVU201
 705 0044 2E2D     		cmp	r5, #46
 706 0046 12D0     		beq	.L66
 226:E:/study/New_Study/My_FOC/VOFA\Master_PC.c ****       }
 707              		.loc 1 226 9 is_stmt 1 view .LVU202
 226:E:/study/New_Study/My_FOC/VOFA\Master_PC.c ****       }
 708              		.loc 1 226 20 is_stmt 0 view .LVU203
 709 0048 1049     		ldr	r1, .L69+8
 710 004a 3046     		mov	r0, r6
 711 004c FFF7FEFF 		bl	__aeabi_fmul
 712              	.LVL23:
 713 0050 0646     		mov	r6, r0
 714              	.LVL24:
 226:E:/study/New_Study/My_FOC/VOFA\Master_PC.c ****       }
 715              		.loc 1 226 24 view .LVU204
 716 0052 2846     		mov	r0, r5
 717 0054 FFF7FEFF 		bl	__aeabi_i2f
 718              	.LVL25:
 719 0058 3146     		mov	r1, r6
ARM GAS  C:\Users\86390\AppData\Local\Temp\ccSIReWa.s 			page 20


 720 005a FFF7FEFF 		bl	__aeabi_fadd
 721              	.LVL26:
 226:E:/study/New_Study/My_FOC/VOFA\Master_PC.c ****       }
 722              		.loc 1 226 14 view .LVU205
 723 005e 0C49     		ldr	r1, .L69+12
 724 0060 FFF7FEFF 		bl	__aeabi_fsub
 725              	.LVL27:
 726 0064 0646     		mov	r6, r0
 727              	.LVL28:
 226:E:/study/New_Study/My_FOC/VOFA\Master_PC.c ****       }
 728              		.loc 1 226 14 view .LVU206
 729 0066 E0E7     		b	.L62
 730              	.LVL29:
 731              	.L65:
 215:E:/study/New_Study/My_FOC/VOFA\Master_PC.c ****       continue;		/* Ë∑≥ËøáÊú¨Ê¨°Âæ™ÁéØ */ 
 732              		.loc 1 215 17 view .LVU207
 733 0068 4FF0FF39 		mov	r9, #-1
 734              	.LVL30:
 215:E:/study/New_Study/My_FOC/VOFA\Master_PC.c ****       continue;		/* Ë∑≥ËøáÊú¨Ê¨°Âæ™ÁéØ */ 
 735              		.loc 1 215 17 view .LVU208
 736 006c DDE7     		b	.L62
 737              	.LVL31:
 738              	.L66:
 222:E:/study/New_Study/My_FOC/VOFA\Master_PC.c ****       }
 739              		.loc 1 222 17 view .LVU209
 740 006e 4FF00108 		mov	r8, #1
 741              	.LVL32:
 222:E:/study/New_Study/My_FOC/VOFA\Master_PC.c ****       }
 742              		.loc 1 222 17 view .LVU210
 743 0072 DAE7     		b	.L62
 744              	.LVL33:
 745              	.L68:
 222:E:/study/New_Study/My_FOC/VOFA\Master_PC.c ****       }
 746              		.loc 1 222 17 view .LVU211
 747              	.LBE5:
 233:E:/study/New_Study/My_FOC/VOFA\Master_PC.c ****     }
 234:E:/study/New_Study/My_FOC/VOFA\Master_PC.c ****   }
 235:E:/study/New_Study/My_FOC/VOFA\Master_PC.c ****   return Data*minus_Flag; /* Â∞ÜÊç¢ÁÆóÂêéÁöÑÊï∞ÊçÆËøîÂõûÂá∫Êù• ËøôÈáå‰πò‰∏äË¥üÂè∑Ê†áÂøó‰Ωç */
 748              		.loc 1 235 3 is_stmt 1 view .LVU212
 749              		.loc 1 235 14 is_stmt 0 view .LVU213
 750 0074 4846     		mov	r0, r9
 751 0076 FFF7FEFF 		bl	__aeabi_i2f
 752              	.LVL34:
 753 007a 3146     		mov	r1, r6
 754 007c FFF7FEFF 		bl	__aeabi_fmul
 755              	.LVL35:
 236:E:/study/New_Study/My_FOC/VOFA\Master_PC.c **** 
 237:E:/study/New_Study/My_FOC/VOFA\Master_PC.c **** }
 756              		.loc 1 237 1 view .LVU214
 757 0080 BDE8F883 		pop	{r3, r4, r5, r6, r7, r8, r9, pc}
 758              	.LVL36:
 759              	.L70:
 760              		.loc 1 237 1 view .LVU215
 761              		.align	2
 762              	.L69:
 763 0084 00000000 		.word	.LANCHOR4
 764 0088 00000000 		.word	.LANCHOR7
ARM GAS  C:\Users\86390\AppData\Local\Temp\ccSIReWa.s 			page 21


 765 008c 00002041 		.word	1092616192
 766 0090 00004042 		.word	1111490560
 767              		.cfi_endproc
 768              	.LFE71:
 770              		.global	PID_Mode
 771              		.global	Car_on_off
 772              		.global	Get_On_or_off
 773              		.global	Get_Vofa_RxData
 774              		.global	PID_index_2
 775              		.global	PID_index_1
 776              		.global	On_or_off_RxFlag
 777              		.global	PID_RxFlag
 778              		.global	id_Flag_2
 779              		.global	id_Flag_1
 780              		.global	Data_BitNum
 781              		.global	Rx_Byte
 782              		.section	.bss.Car_on_off,"aw",%nobits
 783              		.align	2
 786              	Car_on_off:
 787 0000 00000000 		.space	4
 788              		.section	.bss.Data_BitNum,"aw",%nobits
 789              		.set	.LANCHOR4,. + 0
 792              	Data_BitNum:
 793 0000 00       		.space	1
 794              		.section	.bss.Get_On_or_off,"aw",%nobits
 795              		.align	2
 796              		.set	.LANCHOR11,. + 0
 799              	Get_On_or_off:
 800 0000 00000000 		.space	100
 800      00000000 
 800      00000000 
 800      00000000 
 800      00000000 
 801              		.section	.bss.Get_Vofa_RxData,"aw",%nobits
 802              		.align	2
 803              		.set	.LANCHOR7,. + 0
 806              	Get_Vofa_RxData:
 807 0000 00000000 		.space	100
 807      00000000 
 807      00000000 
 807      00000000 
 807      00000000 
 808              		.section	.bss.On_or_off_RxFlag,"aw",%nobits
 809              		.set	.LANCHOR9,. + 0
 812              	On_or_off_RxFlag:
 813 0000 00       		.space	1
 814              		.section	.bss.On_or_off_RxState.1,"aw",%nobits
 815              		.set	.LANCHOR8,. + 0
 818              	On_or_off_RxState.1:
 819 0000 00       		.space	1
 820              		.section	.bss.On_or_off_pRxPacket.0,"aw",%nobits
 821              		.set	.LANCHOR10,. + 0
 824              	On_or_off_pRxPacket.0:
 825 0000 00       		.space	1
 826              		.section	.bss.PID_Mode,"aw",%nobits
 827              		.align	2
 830              	PID_Mode:
ARM GAS  C:\Users\86390\AppData\Local\Temp\ccSIReWa.s 			page 22


 831 0000 00000000 		.space	24
 831      00000000 
 831      00000000 
 831      00000000 
 831      00000000 
 832              		.section	.bss.PID_RxFlag,"aw",%nobits
 833              		.set	.LANCHOR6,. + 0
 836              	PID_RxFlag:
 837 0000 00       		.space	1
 838              		.section	.bss.PID_RxState.3,"aw",%nobits
 839              		.set	.LANCHOR1,. + 0
 842              	PID_RxState.3:
 843 0000 00       		.space	1
 844              		.section	.bss.PID_index_1,"aw",%nobits
 847              	PID_index_1:
 848 0000 00       		.space	1
 849              		.section	.bss.PID_index_2,"aw",%nobits
 852              	PID_index_2:
 853 0000 00       		.space	1
 854              		.section	.bss.PID_pRxPacket.2,"aw",%nobits
 855              		.set	.LANCHOR5,. + 0
 858              	PID_pRxPacket.2:
 859 0000 00       		.space	1
 860              		.section	.bss.Rx_Byte,"aw",%nobits
 861              		.set	.LANCHOR0,. + 0
 864              	Rx_Byte:
 865 0000 00       		.space	1
 866              		.section	.bss.id_Flag_1,"aw",%nobits
 867              		.set	.LANCHOR2,. + 0
 870              	id_Flag_1:
 871 0000 00       		.space	1
 872              		.section	.bss.id_Flag_2,"aw",%nobits
 873              		.set	.LANCHOR3,. + 0
 876              	id_Flag_2:
 877 0000 00       		.space	1
 878              		.text
 879              	.Letext0:
 880              		.file 2 "d:\\stm32_vscode_bag\\gnu\\arm-none-eabi\\include\\machine\\_default_types.h"
 881              		.file 3 "d:\\stm32_vscode_bag\\gnu\\arm-none-eabi\\include\\sys\\_stdint.h"
 882              		.file 4 "Drivers/CMSIS/Device/ST/STM32F1xx/Include/stm32f103xb.h"
 883              		.file 5 "Drivers/STM32F1xx_HAL_Driver/Inc/stm32f1xx_hal_def.h"
 884              		.file 6 "Drivers/STM32F1xx_HAL_Driver/Inc/stm32f1xx_hal_dma.h"
 885              		.file 7 "Drivers/STM32F1xx_HAL_Driver/Inc/stm32f1xx_hal_uart.h"
 886              		.file 8 "E:/study/New_Study/My_FOC/VOFA/Master_PC.h"
ARM GAS  C:\Users\86390\AppData\Local\Temp\ccSIReWa.s 			page 23

